	.section	__TEXT,__text,regular,pure_instructions
	.build_version macos, 13, 0	sdk_version 13, 3
	.ptrauth_abi_version 0
	.section	__TEXT,__StaticInit,regular,pure_instructions
	.p2align	2                               ; -- Begin function __cxx_global_var_init
___cxx_global_var_init:                 ; @__cxx_global_var_init
	.cfi_startproc
; %bb.0:
	pacibsp
	sub	sp, sp, #32
	.cfi_def_cfa_offset 32
	stp	x29, x30, [sp, #16]             ; 16-byte Folded Spill
	add	x29, sp, #16
	.cfi_def_cfa w29, 16
	.cfi_offset w30, -8
	.cfi_offset w29, -16
                                        ; implicit-def: $x16
                                        ; implicit-def: $x17
	adrp	x16, __ZNSt3__112basic_stringIcNS_11char_traitsIcEENS_9allocatorIcEEED1Ev@GOTPAGE
	ldr	x16, [x16, __ZNSt3__112basic_stringIcNS_11char_traitsIcEENS_9allocatorIcEEED1Ev@GOTPAGEOFF]
	paciza	x16
	str	x16, [sp]                       ; 8-byte Folded Spill
	adrp	x0, __ZL17ANSI_CLEAR_SCREEN@PAGE
	add	x0, x0, __ZL17ANSI_CLEAR_SCREEN@PAGEOFF
	str	x0, [sp, #8]                    ; 8-byte Folded Spill
	adrp	x1, l_.str@PAGE
	add	x1, x1, l_.str@PAGEOFF
	bl	__ZNSt3__112basic_stringIcNS_11char_traitsIcEENS_9allocatorIcEEEC1B6v15006IDnEEPKc
	ldr	x0, [sp]                        ; 8-byte Folded Reload
	ldr	x1, [sp, #8]                    ; 8-byte Folded Reload
	adrp	x2, ___dso_handle@PAGE
	add	x2, x2, ___dso_handle@PAGEOFF
	bl	___cxa_atexit
	ldp	x29, x30, [sp, #16]             ; 16-byte Folded Reload
	add	sp, sp, #32
	retab
	.cfi_endproc
                                        ; -- End function
	.section	__TEXT,__text,regular,pure_instructions
	.globl	__ZNSt3__112basic_stringIcNS_11char_traitsIcEENS_9allocatorIcEEEC1B6v15006IDnEEPKc ; -- Begin function _ZNSt3__112basic_stringIcNS_11char_traitsIcEENS_9allocatorIcEEEC1B6v15006IDnEEPKc
	.weak_def_can_be_hidden	__ZNSt3__112basic_stringIcNS_11char_traitsIcEENS_9allocatorIcEEEC1B6v15006IDnEEPKc
	.p2align	2
__ZNSt3__112basic_stringIcNS_11char_traitsIcEENS_9allocatorIcEEEC1B6v15006IDnEEPKc: ; @_ZNSt3__112basic_stringIcNS_11char_traitsIcEENS_9allocatorIcEEEC1B6v15006IDnEEPKc
	.cfi_startproc
; %bb.0:
	pacibsp
	sub	sp, sp, #48
	.cfi_def_cfa_offset 48
	stp	x29, x30, [sp, #32]             ; 16-byte Folded Spill
	add	x29, sp, #32
	.cfi_def_cfa w29, 16
	.cfi_offset w30, -8
	.cfi_offset w29, -16
	stur	x0, [x29, #-8]
	str	x1, [sp, #16]
	ldur	x0, [x29, #-8]
	str	x0, [sp, #8]                    ; 8-byte Folded Spill
	ldr	x1, [sp, #16]
	bl	__ZNSt3__112basic_stringIcNS_11char_traitsIcEENS_9allocatorIcEEEC2B6v15006IDnEEPKc
	ldr	x0, [sp, #8]                    ; 8-byte Folded Reload
	ldp	x29, x30, [sp, #32]             ; 16-byte Folded Reload
	add	sp, sp, #48
	retab
	.cfi_endproc
                                        ; -- End function
	.section	__TEXT,__StaticInit,regular,pure_instructions
	.p2align	2                               ; -- Begin function __cxx_global_var_init.1
___cxx_global_var_init.1:               ; @__cxx_global_var_init.1
	.cfi_startproc
; %bb.0:
	pacibsp
	sub	sp, sp, #32
	.cfi_def_cfa_offset 32
	stp	x29, x30, [sp, #16]             ; 16-byte Folded Spill
	add	x29, sp, #16
	.cfi_def_cfa w29, 16
	.cfi_offset w30, -8
	.cfi_offset w29, -16
                                        ; implicit-def: $x16
                                        ; implicit-def: $x17
	adrp	x16, __ZNSt3__112basic_stringIcNS_11char_traitsIcEENS_9allocatorIcEEED1Ev@GOTPAGE
	ldr	x16, [x16, __ZNSt3__112basic_stringIcNS_11char_traitsIcEENS_9allocatorIcEEED1Ev@GOTPAGEOFF]
	paciza	x16
	str	x16, [sp]                       ; 8-byte Folded Spill
	adrp	x0, __ZL9ANSI_BOLD@PAGE
	add	x0, x0, __ZL9ANSI_BOLD@PAGEOFF
	str	x0, [sp, #8]                    ; 8-byte Folded Spill
	adrp	x1, l_.str.2@PAGE
	add	x1, x1, l_.str.2@PAGEOFF
	bl	__ZNSt3__112basic_stringIcNS_11char_traitsIcEENS_9allocatorIcEEEC1B6v15006IDnEEPKc
	ldr	x0, [sp]                        ; 8-byte Folded Reload
	ldr	x1, [sp, #8]                    ; 8-byte Folded Reload
	adrp	x2, ___dso_handle@PAGE
	add	x2, x2, ___dso_handle@PAGEOFF
	bl	___cxa_atexit
	ldp	x29, x30, [sp, #16]             ; 16-byte Folded Reload
	add	sp, sp, #32
	retab
	.cfi_endproc
                                        ; -- End function
	.p2align	2                               ; -- Begin function __cxx_global_var_init.3
___cxx_global_var_init.3:               ; @__cxx_global_var_init.3
	.cfi_startproc
; %bb.0:
	pacibsp
	sub	sp, sp, #32
	.cfi_def_cfa_offset 32
	stp	x29, x30, [sp, #16]             ; 16-byte Folded Spill
	add	x29, sp, #16
	.cfi_def_cfa w29, 16
	.cfi_offset w30, -8
	.cfi_offset w29, -16
                                        ; implicit-def: $x16
                                        ; implicit-def: $x17
	adrp	x16, __ZNSt3__112basic_stringIcNS_11char_traitsIcEENS_9allocatorIcEEED1Ev@GOTPAGE
	ldr	x16, [x16, __ZNSt3__112basic_stringIcNS_11char_traitsIcEENS_9allocatorIcEEED1Ev@GOTPAGEOFF]
	paciza	x16
	str	x16, [sp]                       ; 8-byte Folded Spill
	adrp	x0, __ZL10ANSI_RESET@PAGE
	add	x0, x0, __ZL10ANSI_RESET@PAGEOFF
	str	x0, [sp, #8]                    ; 8-byte Folded Spill
	adrp	x1, l_.str.4@PAGE
	add	x1, x1, l_.str.4@PAGEOFF
	bl	__ZNSt3__112basic_stringIcNS_11char_traitsIcEENS_9allocatorIcEEEC1B6v15006IDnEEPKc
	ldr	x0, [sp]                        ; 8-byte Folded Reload
	ldr	x1, [sp, #8]                    ; 8-byte Folded Reload
	adrp	x2, ___dso_handle@PAGE
	add	x2, x2, ___dso_handle@PAGEOFF
	bl	___cxa_atexit
	ldp	x29, x30, [sp, #16]             ; 16-byte Folded Reload
	add	sp, sp, #32
	retab
	.cfi_endproc
                                        ; -- End function
	.p2align	2                               ; -- Begin function __cxx_global_var_init.5
___cxx_global_var_init.5:               ; @__cxx_global_var_init.5
	.cfi_startproc
; %bb.0:
	pacibsp
	sub	sp, sp, #32
	.cfi_def_cfa_offset 32
	stp	x29, x30, [sp, #16]             ; 16-byte Folded Spill
	add	x29, sp, #16
	.cfi_def_cfa w29, 16
	.cfi_offset w30, -8
	.cfi_offset w29, -16
                                        ; implicit-def: $x16
                                        ; implicit-def: $x17
	adrp	x16, __ZNSt3__112basic_stringIcNS_11char_traitsIcEENS_9allocatorIcEEED1Ev@GOTPAGE
	ldr	x16, [x16, __ZNSt3__112basic_stringIcNS_11char_traitsIcEENS_9allocatorIcEEED1Ev@GOTPAGEOFF]
	paciza	x16
	str	x16, [sp]                       ; 8-byte Folded Spill
	adrp	x0, __ZL11ANSI_YELLOW@PAGE
	add	x0, x0, __ZL11ANSI_YELLOW@PAGEOFF
	str	x0, [sp, #8]                    ; 8-byte Folded Spill
	adrp	x1, l_.str.6@PAGE
	add	x1, x1, l_.str.6@PAGEOFF
	bl	__ZNSt3__112basic_stringIcNS_11char_traitsIcEENS_9allocatorIcEEEC1B6v15006IDnEEPKc
	ldr	x0, [sp]                        ; 8-byte Folded Reload
	ldr	x1, [sp, #8]                    ; 8-byte Folded Reload
	adrp	x2, ___dso_handle@PAGE
	add	x2, x2, ___dso_handle@PAGEOFF
	bl	___cxa_atexit
	ldp	x29, x30, [sp, #16]             ; 16-byte Folded Reload
	add	sp, sp, #32
	retab
	.cfi_endproc
                                        ; -- End function
	.p2align	2                               ; -- Begin function __cxx_global_var_init.7
___cxx_global_var_init.7:               ; @__cxx_global_var_init.7
	.cfi_startproc
; %bb.0:
	pacibsp
	sub	sp, sp, #32
	.cfi_def_cfa_offset 32
	stp	x29, x30, [sp, #16]             ; 16-byte Folded Spill
	add	x29, sp, #16
	.cfi_def_cfa w29, 16
	.cfi_offset w30, -8
	.cfi_offset w29, -16
                                        ; implicit-def: $x16
                                        ; implicit-def: $x17
	adrp	x16, __ZNSt3__112basic_stringIcNS_11char_traitsIcEENS_9allocatorIcEEED1Ev@GOTPAGE
	ldr	x16, [x16, __ZNSt3__112basic_stringIcNS_11char_traitsIcEENS_9allocatorIcEEED1Ev@GOTPAGEOFF]
	paciza	x16
	str	x16, [sp]                       ; 8-byte Folded Spill
	adrp	x0, __ZL9ANSI_CYAN@PAGE
	add	x0, x0, __ZL9ANSI_CYAN@PAGEOFF
	str	x0, [sp, #8]                    ; 8-byte Folded Spill
	adrp	x1, l_.str.8@PAGE
	add	x1, x1, l_.str.8@PAGEOFF
	bl	__ZNSt3__112basic_stringIcNS_11char_traitsIcEENS_9allocatorIcEEEC1B6v15006IDnEEPKc
	ldr	x0, [sp]                        ; 8-byte Folded Reload
	ldr	x1, [sp, #8]                    ; 8-byte Folded Reload
	adrp	x2, ___dso_handle@PAGE
	add	x2, x2, ___dso_handle@PAGEOFF
	bl	___cxa_atexit
	ldp	x29, x30, [sp, #16]             ; 16-byte Folded Reload
	add	sp, sp, #32
	retab
	.cfi_endproc
                                        ; -- End function
	.p2align	2                               ; -- Begin function __cxx_global_var_init.21
___cxx_global_var_init.21:              ; @__cxx_global_var_init.21
	.cfi_startproc
; %bb.0:
	adrp	x8, _WCHAR_UNICODE_TOP_LEFT@PAGE
	ldr	x8, [x8, _WCHAR_UNICODE_TOP_LEFT@PAGEOFF]
	adrp	x9, _UNICODE_CORNER_CHAR_WCHAR@PAGE
	str	x8, [x9, _UNICODE_CORNER_CHAR_WCHAR@PAGEOFF]
	ret
	.cfi_endproc
                                        ; -- End function
	.p2align	2                               ; -- Begin function __cxx_global_var_init.22
___cxx_global_var_init.22:              ; @__cxx_global_var_init.22
	.cfi_startproc
; %bb.0:
	pacibsp
	sub	sp, sp, #32
	.cfi_def_cfa_offset 32
	stp	x29, x30, [sp, #16]             ; 16-byte Folded Spill
	add	x29, sp, #16
	.cfi_def_cfa w29, 16
	.cfi_offset w30, -8
	.cfi_offset w29, -16
                                        ; implicit-def: $x16
                                        ; implicit-def: $x17
	adrp	x16, __ZNSt3__112basic_stringIcNS_11char_traitsIcEENS_9allocatorIcEEED1Ev@GOTPAGE
	ldr	x16, [x16, __ZNSt3__112basic_stringIcNS_11char_traitsIcEENS_9allocatorIcEEED1Ev@GOTPAGEOFF]
	paciza	x16
	str	x16, [sp]                       ; 8-byte Folded Spill
	adrp	x0, __ZL8ABRT_MSG@PAGE
	add	x0, x0, __ZL8ABRT_MSG@PAGEOFF
	str	x0, [sp, #8]                    ; 8-byte Folded Spill
	adrp	x1, l_.str.23@PAGE
	add	x1, x1, l_.str.23@PAGEOFF
	bl	__ZNSt3__112basic_stringIcNS_11char_traitsIcEENS_9allocatorIcEEEC1B6v15006IDnEEPKc
	ldr	x0, [sp]                        ; 8-byte Folded Reload
	ldr	x1, [sp, #8]                    ; 8-byte Folded Reload
	adrp	x2, ___dso_handle@PAGE
	add	x2, x2, ___dso_handle@PAGEOFF
	bl	___cxa_atexit
	ldp	x29, x30, [sp, #16]             ; 16-byte Folded Reload
	add	sp, sp, #32
	retab
	.cfi_endproc
                                        ; -- End function
	.p2align	2                               ; -- Begin function __cxx_global_var_init.24
___cxx_global_var_init.24:              ; @__cxx_global_var_init.24
	.cfi_startproc
; %bb.0:
	pacibsp
	sub	sp, sp, #32
	.cfi_def_cfa_offset 32
	stp	x29, x30, [sp, #16]             ; 16-byte Folded Spill
	add	x29, sp, #16
	.cfi_def_cfa w29, 16
	.cfi_offset w30, -8
	.cfi_offset w29, -16
                                        ; implicit-def: $x16
                                        ; implicit-def: $x17
	adrp	x16, __ZNSt3__112basic_stringIcNS_11char_traitsIcEENS_9allocatorIcEEED1Ev@GOTPAGE
	ldr	x16, [x16, __ZNSt3__112basic_stringIcNS_11char_traitsIcEENS_9allocatorIcEEED1Ev@GOTPAGEOFF]
	paciza	x16
	str	x16, [sp]                       ; 8-byte Folded Spill
	adrp	x0, __ZL9ALARM_MSG@PAGE
	add	x0, x0, __ZL9ALARM_MSG@PAGEOFF
	str	x0, [sp, #8]                    ; 8-byte Folded Spill
	adrp	x1, l_.str.25@PAGE
	add	x1, x1, l_.str.25@PAGEOFF
	bl	__ZNSt3__112basic_stringIcNS_11char_traitsIcEENS_9allocatorIcEEEC1B6v15006IDnEEPKc
	ldr	x0, [sp]                        ; 8-byte Folded Reload
	ldr	x1, [sp, #8]                    ; 8-byte Folded Reload
	adrp	x2, ___dso_handle@PAGE
	add	x2, x2, ___dso_handle@PAGEOFF
	bl	___cxa_atexit
	ldp	x29, x30, [sp, #16]             ; 16-byte Folded Reload
	add	sp, sp, #32
	retab
	.cfi_endproc
                                        ; -- End function
	.p2align	2                               ; -- Begin function __cxx_global_var_init.26
___cxx_global_var_init.26:              ; @__cxx_global_var_init.26
	.cfi_startproc
; %bb.0:
	pacibsp
	sub	sp, sp, #32
	.cfi_def_cfa_offset 32
	stp	x29, x30, [sp, #16]             ; 16-byte Folded Spill
	add	x29, sp, #16
	.cfi_def_cfa w29, 16
	.cfi_offset w30, -8
	.cfi_offset w29, -16
                                        ; implicit-def: $x16
                                        ; implicit-def: $x17
	adrp	x16, __ZNSt3__112basic_stringIcNS_11char_traitsIcEENS_9allocatorIcEEED1Ev@GOTPAGE
	ldr	x16, [x16, __ZNSt3__112basic_stringIcNS_11char_traitsIcEENS_9allocatorIcEEED1Ev@GOTPAGEOFF]
	paciza	x16
	str	x16, [sp]                       ; 8-byte Folded Spill
	adrp	x0, __ZL7BUS_MSG@PAGE
	add	x0, x0, __ZL7BUS_MSG@PAGEOFF
	str	x0, [sp, #8]                    ; 8-byte Folded Spill
	adrp	x1, l_.str.27@PAGE
	add	x1, x1, l_.str.27@PAGEOFF
	bl	__ZNSt3__112basic_stringIcNS_11char_traitsIcEENS_9allocatorIcEEEC1B6v15006IDnEEPKc
	ldr	x0, [sp]                        ; 8-byte Folded Reload
	ldr	x1, [sp, #8]                    ; 8-byte Folded Reload
	adrp	x2, ___dso_handle@PAGE
	add	x2, x2, ___dso_handle@PAGEOFF
	bl	___cxa_atexit
	ldp	x29, x30, [sp, #16]             ; 16-byte Folded Reload
	add	sp, sp, #32
	retab
	.cfi_endproc
                                        ; -- End function
	.p2align	2                               ; -- Begin function __cxx_global_var_init.28
___cxx_global_var_init.28:              ; @__cxx_global_var_init.28
	.cfi_startproc
; %bb.0:
	pacibsp
	sub	sp, sp, #32
	.cfi_def_cfa_offset 32
	stp	x29, x30, [sp, #16]             ; 16-byte Folded Spill
	add	x29, sp, #16
	.cfi_def_cfa w29, 16
	.cfi_offset w30, -8
	.cfi_offset w29, -16
                                        ; implicit-def: $x16
                                        ; implicit-def: $x17
	adrp	x16, __ZNSt3__112basic_stringIcNS_11char_traitsIcEENS_9allocatorIcEEED1Ev@GOTPAGE
	ldr	x16, [x16, __ZNSt3__112basic_stringIcNS_11char_traitsIcEENS_9allocatorIcEEED1Ev@GOTPAGEOFF]
	paciza	x16
	str	x16, [sp]                       ; 8-byte Folded Spill
	adrp	x0, __ZL7FPE_MSG@PAGE
	add	x0, x0, __ZL7FPE_MSG@PAGEOFF
	str	x0, [sp, #8]                    ; 8-byte Folded Spill
	adrp	x1, l_.str.29@PAGE
	add	x1, x1, l_.str.29@PAGEOFF
	bl	__ZNSt3__112basic_stringIcNS_11char_traitsIcEENS_9allocatorIcEEEC1B6v15006IDnEEPKc
	ldr	x0, [sp]                        ; 8-byte Folded Reload
	ldr	x1, [sp, #8]                    ; 8-byte Folded Reload
	adrp	x2, ___dso_handle@PAGE
	add	x2, x2, ___dso_handle@PAGEOFF
	bl	___cxa_atexit
	ldp	x29, x30, [sp, #16]             ; 16-byte Folded Reload
	add	sp, sp, #32
	retab
	.cfi_endproc
                                        ; -- End function
	.p2align	2                               ; -- Begin function __cxx_global_var_init.30
___cxx_global_var_init.30:              ; @__cxx_global_var_init.30
	.cfi_startproc
; %bb.0:
	pacibsp
	sub	sp, sp, #32
	.cfi_def_cfa_offset 32
	stp	x29, x30, [sp, #16]             ; 16-byte Folded Spill
	add	x29, sp, #16
	.cfi_def_cfa w29, 16
	.cfi_offset w30, -8
	.cfi_offset w29, -16
                                        ; implicit-def: $x16
                                        ; implicit-def: $x17
	adrp	x16, __ZNSt3__112basic_stringIcNS_11char_traitsIcEENS_9allocatorIcEEED1Ev@GOTPAGE
	ldr	x16, [x16, __ZNSt3__112basic_stringIcNS_11char_traitsIcEENS_9allocatorIcEEED1Ev@GOTPAGEOFF]
	paciza	x16
	str	x16, [sp]                       ; 8-byte Folded Spill
	adrp	x0, __ZL7HUP_MSG@PAGE
	add	x0, x0, __ZL7HUP_MSG@PAGEOFF
	str	x0, [sp, #8]                    ; 8-byte Folded Spill
	adrp	x1, l_.str.31@PAGE
	add	x1, x1, l_.str.31@PAGEOFF
	bl	__ZNSt3__112basic_stringIcNS_11char_traitsIcEENS_9allocatorIcEEEC1B6v15006IDnEEPKc
	ldr	x0, [sp]                        ; 8-byte Folded Reload
	ldr	x1, [sp, #8]                    ; 8-byte Folded Reload
	adrp	x2, ___dso_handle@PAGE
	add	x2, x2, ___dso_handle@PAGEOFF
	bl	___cxa_atexit
	ldp	x29, x30, [sp, #16]             ; 16-byte Folded Reload
	add	sp, sp, #32
	retab
	.cfi_endproc
                                        ; -- End function
	.p2align	2                               ; -- Begin function __cxx_global_var_init.32
___cxx_global_var_init.32:              ; @__cxx_global_var_init.32
	.cfi_startproc
; %bb.0:
	pacibsp
	sub	sp, sp, #32
	.cfi_def_cfa_offset 32
	stp	x29, x30, [sp, #16]             ; 16-byte Folded Spill
	add	x29, sp, #16
	.cfi_def_cfa w29, 16
	.cfi_offset w30, -8
	.cfi_offset w29, -16
                                        ; implicit-def: $x16
                                        ; implicit-def: $x17
	adrp	x16, __ZNSt3__112basic_stringIcNS_11char_traitsIcEENS_9allocatorIcEEED1Ev@GOTPAGE
	ldr	x16, [x16, __ZNSt3__112basic_stringIcNS_11char_traitsIcEENS_9allocatorIcEEED1Ev@GOTPAGEOFF]
	paciza	x16
	str	x16, [sp]                       ; 8-byte Folded Spill
	adrp	x0, __ZL7ILL_MSG@PAGE
	add	x0, x0, __ZL7ILL_MSG@PAGEOFF
	str	x0, [sp, #8]                    ; 8-byte Folded Spill
	adrp	x1, l_.str.33@PAGE
	add	x1, x1, l_.str.33@PAGEOFF
	bl	__ZNSt3__112basic_stringIcNS_11char_traitsIcEENS_9allocatorIcEEEC1B6v15006IDnEEPKc
	ldr	x0, [sp]                        ; 8-byte Folded Reload
	ldr	x1, [sp, #8]                    ; 8-byte Folded Reload
	adrp	x2, ___dso_handle@PAGE
	add	x2, x2, ___dso_handle@PAGEOFF
	bl	___cxa_atexit
	ldp	x29, x30, [sp, #16]             ; 16-byte Folded Reload
	add	sp, sp, #32
	retab
	.cfi_endproc
                                        ; -- End function
	.p2align	2                               ; -- Begin function __cxx_global_var_init.34
___cxx_global_var_init.34:              ; @__cxx_global_var_init.34
	.cfi_startproc
; %bb.0:
	pacibsp
	sub	sp, sp, #32
	.cfi_def_cfa_offset 32
	stp	x29, x30, [sp, #16]             ; 16-byte Folded Spill
	add	x29, sp, #16
	.cfi_def_cfa w29, 16
	.cfi_offset w30, -8
	.cfi_offset w29, -16
                                        ; implicit-def: $x16
                                        ; implicit-def: $x17
	adrp	x16, __ZNSt3__112basic_stringIcNS_11char_traitsIcEENS_9allocatorIcEEED1Ev@GOTPAGE
	ldr	x16, [x16, __ZNSt3__112basic_stringIcNS_11char_traitsIcEENS_9allocatorIcEEED1Ev@GOTPAGEOFF]
	paciza	x16
	str	x16, [sp]                       ; 8-byte Folded Spill
	adrp	x0, __ZL7INT_MSG@PAGE
	add	x0, x0, __ZL7INT_MSG@PAGEOFF
	str	x0, [sp, #8]                    ; 8-byte Folded Spill
	adrp	x1, l_.str.35@PAGE
	add	x1, x1, l_.str.35@PAGEOFF
	bl	__ZNSt3__112basic_stringIcNS_11char_traitsIcEENS_9allocatorIcEEEC1B6v15006IDnEEPKc
	ldr	x0, [sp]                        ; 8-byte Folded Reload
	ldr	x1, [sp, #8]                    ; 8-byte Folded Reload
	adrp	x2, ___dso_handle@PAGE
	add	x2, x2, ___dso_handle@PAGEOFF
	bl	___cxa_atexit
	ldp	x29, x30, [sp, #16]             ; 16-byte Folded Reload
	add	sp, sp, #32
	retab
	.cfi_endproc
                                        ; -- End function
	.section	__TEXT,__text,regular,pure_instructions
	.globl	__ZN11AudioPlayer4fileEPKc      ; -- Begin function _ZN11AudioPlayer4fileEPKc
	.p2align	2
__ZN11AudioPlayer4fileEPKc:             ; @_ZN11AudioPlayer4fileEPKc
	.cfi_startproc
; %bb.0:
	pacibsp
	sub	sp, sp, #64
	.cfi_def_cfa_offset 64
	stp	x29, x30, [sp, #48]             ; 16-byte Folded Spill
	add	x29, sp, #48
	.cfi_def_cfa w29, 16
	.cfi_offset w30, -8
	.cfi_offset w29, -16
	stur	x0, [x29, #-8]
	ldur	x8, [x29, #-8]
	str	x8, [sp, #8]                    ; 8-byte Folded Spill
	ldur	x0, [x29, #-8]
	bl	_strlen
	ldr	x1, [sp, #8]                    ; 8-byte Folded Reload
	mov	x2, x0
	mov	x0, #0
	mov	w3, #0
	bl	_CFURLCreateFromFileSystemRepresentation
	stur	x0, [x29, #-16]
	mov	x0, #136
	bl	__Znwm
	str	x0, [sp, #16]                   ; 8-byte Folded Spill
	bl	__ZN14AudioPlayerOsxC1Ev
	ldr	x0, [sp, #16]                   ; 8-byte Folded Reload
	str	x0, [sp, #24]
	ldr	x0, [sp, #24]
	ldur	x1, [x29, #-16]
	bl	__ZN14AudioPlayerOsx4loadEPK7__CFURL
	tbnz	w0, #0, LBB14_4
	b	LBB14_1
LBB14_1:
	ldr	x8, [sp, #24]
	str	x8, [sp]                        ; 8-byte Folded Spill
	subs	x8, x8, #0
	cset	w8, eq
	tbnz	w8, #0, LBB14_3
	b	LBB14_2
LBB14_2:
	ldr	x0, [sp]                        ; 8-byte Folded Reload
	ldr	x16, [x0]
	mov	x8, x0
	mov	x17, x8
	movk	x17, #36572, lsl #48
	autda	x16, x17
	ldr	x8, [x16, #8]!
	mov	x9, x16
	mov	x17, x9
	movk	x17, #44193, lsl #48
	blraa	x8, x17
	b	LBB14_3
LBB14_3:
                                        ; kill: def $x8 killed $xzr
	str	xzr, [sp, #24]
	b	LBB14_4
LBB14_4:
	ldur	x0, [x29, #-16]
	bl	_CFRelease
	ldr	x0, [sp, #24]
	ldp	x29, x30, [sp, #48]             ; 16-byte Folded Reload
	add	sp, sp, #64
	retab
	.cfi_endproc
                                        ; -- End function
	.globl	__ZN14AudioPlayerOsxC1Ev        ; -- Begin function _ZN14AudioPlayerOsxC1Ev
	.weak_def_can_be_hidden	__ZN14AudioPlayerOsxC1Ev
	.p2align	2
__ZN14AudioPlayerOsxC1Ev:               ; @_ZN14AudioPlayerOsxC1Ev
	.cfi_startproc
; %bb.0:
	pacibsp
	sub	sp, sp, #32
	.cfi_def_cfa_offset 32
	stp	x29, x30, [sp, #16]             ; 16-byte Folded Spill
	add	x29, sp, #16
	.cfi_def_cfa w29, 16
	.cfi_offset w30, -8
	.cfi_offset w29, -16
	str	x0, [sp, #8]
	ldr	x0, [sp, #8]
	str	x0, [sp]                        ; 8-byte Folded Spill
	bl	__ZN14AudioPlayerOsxC2Ev
	ldr	x0, [sp]                        ; 8-byte Folded Reload
	ldp	x29, x30, [sp, #16]             ; 16-byte Folded Reload
	add	sp, sp, #32
	retab
	.cfi_endproc
                                        ; -- End function
	.globl	__ZN14AudioPlayerOsx4loadEPK7__CFURL ; -- Begin function _ZN14AudioPlayerOsx4loadEPK7__CFURL
	.weak_definition	__ZN14AudioPlayerOsx4loadEPK7__CFURL
	.p2align	2
__ZN14AudioPlayerOsx4loadEPK7__CFURL:   ; @_ZN14AudioPlayerOsx4loadEPK7__CFURL
	.cfi_startproc
; %bb.0:
	pacibsp
	sub	sp, sp, #160
	.cfi_def_cfa_offset 160
	stp	x29, x30, [sp, #144]            ; 16-byte Folded Spill
	add	x29, sp, #144
	.cfi_def_cfa w29, 16
	.cfi_offset w30, -8
	.cfi_offset w29, -16
                                        ; implicit-def: $x16
                                        ; implicit-def: $x17
	adrp	x16, __ZL18HandleOutputBufferPvP16OpaqueAudioQueueP16AudioQueueBuffer@PAGE
	add	x16, x16, __ZL18HandleOutputBufferPvP16OpaqueAudioQueueP16AudioQueueBuffer@PAGEOFF
	paciza	x16
	str	x16, [sp, #56]                  ; 8-byte Folded Spill
	stur	x0, [x29, #-16]
	stur	x1, [x29, #-24]
	ldur	x8, [x29, #-16]
	str	x8, [sp, #72]                   ; 8-byte Folded Spill
	add	x0, x8, #16
	mov	w1, #0
	str	w1, [sp, #68]                   ; 4-byte Folded Spill
	mov	x2, #120
	bl	_memset
	ldr	w2, [sp, #68]                   ; 4-byte Folded Reload
	ldr	x8, [sp, #72]                   ; 8-byte Folded Reload
	movi	d0, #0000000000000000
	str	d0, [x8, #8]
	ldur	x0, [x29, #-24]
	mov	w1, #1
	add	x3, x8, #88
	bl	_AudioFileOpenURL
	stur	w0, [x29, #-28]
	ldur	w0, [x29, #-28]
	adrp	x1, l_.str.84@PAGE
	add	x1, x1, l_.str.84@PAGEOFF
	mov	w2, #85
	bl	__ZN14AudioPlayerOsx12checkStatus_EiPKci
	ldur	w8, [x29, #-28]
	subs	w8, w8, #0
	cset	w8, eq
	tbnz	w8, #0, LBB16_2
	b	LBB16_1
LBB16_1:
	mov	w8, #0
	and	w8, w8, #0x1
	and	w8, w8, #0x1
	sturb	w8, [x29, #-1]
	b	LBB16_11
LBB16_2:
	ldr	x8, [sp, #72]                   ; 8-byte Folded Reload
	sub	x2, x29, #32
	mov	w9, #40
	stur	w9, [x29, #-32]
	ldr	x0, [x8, #88]
	add	x3, x8, #16
	mov	w1, #28020
	movk	w1, #25702, lsl #16
	bl	_AudioFileGetProperty
	stur	w0, [x29, #-28]
	ldur	w0, [x29, #-28]
	adrp	x1, l_.str.84@PAGE
	add	x1, x1, l_.str.84@PAGEOFF
	str	x1, [sp, #40]                   ; 8-byte Folded Spill
	mov	w2, #97
	bl	__ZN14AudioPlayerOsx12checkStatus_EiPKci
	ldr	x8, [sp, #72]                   ; 8-byte Folded Reload
	add	x9, x8, #16
	str	x9, [sp, #32]                   ; 8-byte Folded Spill
	add	x8, x8, #16
	str	x8, [sp, #24]                   ; 8-byte Folded Spill
	bl	_CFRunLoopGetCurrent
	ldr	x1, [sp, #56]                   ; 8-byte Folded Reload
	ldr	x2, [sp, #24]                   ; 8-byte Folded Reload
	ldr	x8, [sp, #72]                   ; 8-byte Folded Reload
	mov	x3, x0
	ldr	x0, [sp, #32]                   ; 8-byte Folded Reload
	adrp	x9, _kCFRunLoopCommonModes@GOTPAGE
	ldr	x9, [x9, _kCFRunLoopCommonModes@GOTPAGEOFF]
	ldr	x4, [x9]
	add	x6, x8, #56
	mov	w5, #0
	bl	_AudioQueueNewOutput
	ldr	x1, [sp, #40]                   ; 8-byte Folded Reload
	stur	w0, [x29, #-28]
	ldur	w0, [x29, #-28]
	mov	w2, #109
	bl	__ZN14AudioPlayerOsx12checkStatus_EiPKci
	ldr	x8, [sp, #72]                   ; 8-byte Folded Reload
	sub	x2, x29, #40
	mov	w9, #4
	stur	w9, [x29, #-40]
	ldr	x0, [x8, #88]
	mov	w1, #30050
	movk	w1, #28779, lsl #16
	sub	x3, x29, #36
	bl	_AudioFileGetProperty
	ldr	x1, [sp, #40]                   ; 8-byte Folded Reload
	stur	w0, [x29, #-28]
	ldur	w0, [x29, #-28]
	mov	w2, #119
	bl	__ZN14AudioPlayerOsx12checkStatus_EiPKci
	ldr	x8, [sp, #72]                   ; 8-byte Folded Reload
	add	x0, x8, #16
	ldur	w1, [x29, #-36]
	add	x2, x8, #96
	add	x3, x8, #112
	fmov	d0, #0.50000000
	bl	__ZN14AudioPlayerOsx16deriveBufferSizeER27AudioStreamBasicDescriptionjdPjS2_
	ldr	x8, [sp, #72]                   ; 8-byte Folded Reload
	ldr	w8, [x8, #32]
	subs	w8, w8, #0
	cset	w8, eq
	mov	w9, #1
	str	w9, [sp, #52]                   ; 4-byte Folded Spill
	tbnz	w8, #0, LBB16_4
	b	LBB16_3
LBB16_3:
	ldr	x8, [sp, #72]                   ; 8-byte Folded Reload
	ldr	w8, [x8, #36]
	subs	w8, w8, #0
	cset	w8, eq
	str	w8, [sp, #52]                   ; 4-byte Folded Spill
	b	LBB16_4
LBB16_4:
	ldr	w8, [sp, #52]                   ; 4-byte Folded Reload
	mov	w9, #1
	and	w8, w8, w9
	sturb	w8, [x29, #-41]
	ldurb	w8, [x29, #-41]
	tbz	w8, #0, LBB16_6
	b	LBB16_5
LBB16_5:
	ldr	x8, [sp, #72]                   ; 8-byte Folded Reload
	ldr	w8, [x8, #112]
                                        ; kill: def $x8 killed $w8
	lsl	x0, x8, #4
	bl	_malloc
	ldr	x8, [sp, #72]                   ; 8-byte Folded Reload
	str	x0, [x8, #120]
	b	LBB16_7
LBB16_6:
	ldr	x8, [sp, #72]                   ; 8-byte Folded Reload
                                        ; kill: def $x9 killed $xzr
	str	xzr, [x8, #120]
	b	LBB16_7
LBB16_7:
	ldr	x8, [sp, #72]                   ; 8-byte Folded Reload
	sub	x2, x29, #48
	mov	w9, #4
	stur	w9, [x29, #-48]
	ldr	x0, [x8, #88]
	mov	w1, #26979
	movk	w1, #28007, lsl #16
	mov	x3, #0
	bl	_AudioFileGetPropertyInfo
	stur	w0, [x29, #-52]
	ldur	w8, [x29, #-52]
	subs	w8, w8, #0
	cset	w8, ne
	tbnz	w8, #0, LBB16_10
	b	LBB16_8
LBB16_8:
	ldur	w8, [x29, #-48]
	subs	w8, w8, #0
	cset	w8, eq
	tbnz	w8, #0, LBB16_10
	b	LBB16_9
LBB16_9:
	sub	x8, x29, #48
	str	x8, [sp, #8]                    ; 8-byte Folded Spill
	ldur	w8, [x29, #-48]
	mov	x0, x8
	bl	_malloc
	ldr	x2, [sp, #8]                    ; 8-byte Folded Reload
	ldr	x8, [sp, #72]                   ; 8-byte Folded Reload
	stur	x0, [x29, #-64]
	ldr	x0, [x8, #88]
	ldur	x3, [x29, #-64]
	mov	w1, #26979
	movk	w1, #28007, lsl #16
	bl	_AudioFileGetProperty
	stur	w0, [x29, #-28]
	ldur	w0, [x29, #-28]
	adrp	x1, l_.str.84@PAGE
	add	x1, x1, l_.str.84@PAGEOFF
	str	x1, [sp, #16]                   ; 8-byte Folded Spill
	mov	w2, #168
	bl	__ZN14AudioPlayerOsx12checkStatus_EiPKci
	ldr	x8, [sp, #72]                   ; 8-byte Folded Reload
	ldr	x0, [x8, #56]
	ldur	x2, [x29, #-64]
	ldur	w3, [x29, #-48]
	mov	w1, #28003
	movk	w1, #24945, lsl #16
	bl	_AudioQueueSetProperty
	ldr	x1, [sp, #16]                   ; 8-byte Folded Reload
	stur	w0, [x29, #-28]
	ldur	w0, [x29, #-28]
	mov	w2, #176
	bl	__ZN14AudioPlayerOsx12checkStatus_EiPKci
	ldur	x0, [x29, #-64]
	bl	_free
	b	LBB16_10
LBB16_10:
	mov	w8, #1
	and	w8, w8, #0x1
	and	w8, w8, #0x1
	sturb	w8, [x29, #-1]
	b	LBB16_11
LBB16_11:
	ldurb	w8, [x29, #-1]
	and	w0, w8, #0x1
	ldp	x29, x30, [sp, #144]            ; 16-byte Folded Reload
	add	sp, sp, #160
	retab
	.cfi_endproc
                                        ; -- End function
	.globl	__ZN11SnakeSenzia5Timer18GetCurrentDateTimeEv ; -- Begin function _ZN11SnakeSenzia5Timer18GetCurrentDateTimeEv
	.p2align	2
__ZN11SnakeSenzia5Timer18GetCurrentDateTimeEv: ; @_ZN11SnakeSenzia5Timer18GetCurrentDateTimeEv
Lfunc_begin0:
	.cfi_startproc
	.cfi_personality 155, ___gxx_personality_v0
	.cfi_lsda 16, Lexception0
; %bb.0:
	pacibsp
	sub	sp, sp, #336
	.cfi_def_cfa_offset 336
	stp	x28, x27, [sp, #304]            ; 16-byte Folded Spill
	stp	x29, x30, [sp, #320]            ; 16-byte Folded Spill
	add	x29, sp, #320
	.cfi_def_cfa w29, 16
	.cfi_offset w30, -8
	.cfi_offset w29, -16
	.cfi_offset w27, -24
	.cfi_offset w28, -32
	str	x8, [sp, #8]                    ; 8-byte Folded Spill
	mov	x8, x0
	ldr	x0, [sp, #8]                    ; 8-byte Folded Reload
	mov	x9, x0
	stur	x9, [x29, #-24]
	stur	x8, [x29, #-32]
	mov	w8, #0
	mov	w9, #1
	and	w8, w8, #0x1
	and	w8, w8, w9
	sturb	w8, [x29, #-33]
	bl	__ZNSt3__16vectorINS_12basic_stringIcNS_11char_traitsIcEENS_9allocatorIcEEEENS4_IS6_EEEC1B6v15006Ev
	bl	__ZNSt3__16chrono12system_clock3nowEv
	mov	x8, x0
	sub	x0, x29, #48
	stur	x8, [x29, #-48]
	bl	__ZNSt3__16chrono12system_clock9to_time_tERKNS0_10time_pointIS1_NS0_8durationIxNS_5ratioILl1ELl1000000EEEEEEE
	mov	x8, x0
	sub	x0, x29, #56
	stur	x8, [x29, #-56]
Ltmp0:
	bl	_localtime
	str	x0, [sp, #16]                   ; 8-byte Folded Spill
Ltmp1:
	b	LBB17_1
LBB17_1:
	ldr	x1, [sp, #16]                   ; 8-byte Folded Reload
	sub	x0, x29, #112
	mov	x2, #56
	bl	_memcpy
	ldur	w0, [x29, #-100]
Ltmp2:
	sub	x8, x29, #152
	bl	__ZNSt3__19to_stringEi
Ltmp3:
	b	LBB17_2
LBB17_2:
Ltmp4:
	ldr	x0, [sp, #8]                    ; 8-byte Folded Reload
	sub	x1, x29, #152
	bl	__ZNSt3__16vectorINS_12basic_stringIcNS_11char_traitsIcEENS_9allocatorIcEEEENS4_IS6_EEE9push_backB6v15006EOS6_
Ltmp5:
	b	LBB17_3
LBB17_3:
	sub	x0, x29, #152
	bl	__ZNSt3__112basic_stringIcNS_11char_traitsIcEENS_9allocatorIcEEED1Ev
	ldur	w8, [x29, #-96]
	add	w0, w8, #1
Ltmp7:
	add	x8, sp, #144
	bl	__ZNSt3__19to_stringEi
Ltmp8:
	b	LBB17_4
LBB17_4:
Ltmp9:
	ldr	x0, [sp, #8]                    ; 8-byte Folded Reload
	add	x1, sp, #144
	bl	__ZNSt3__16vectorINS_12basic_stringIcNS_11char_traitsIcEENS_9allocatorIcEEEENS4_IS6_EEE9push_backB6v15006EOS6_
Ltmp10:
	b	LBB17_5
LBB17_5:
	add	x0, sp, #144
	bl	__ZNSt3__112basic_stringIcNS_11char_traitsIcEENS_9allocatorIcEEED1Ev
	ldur	w8, [x29, #-92]
	add	w0, w8, #1900
Ltmp12:
	add	x8, sp, #120
	bl	__ZNSt3__19to_stringEi
Ltmp13:
	b	LBB17_6
LBB17_6:
Ltmp14:
	ldr	x0, [sp, #8]                    ; 8-byte Folded Reload
	add	x1, sp, #120
	bl	__ZNSt3__16vectorINS_12basic_stringIcNS_11char_traitsIcEENS_9allocatorIcEEEENS4_IS6_EEE9push_backB6v15006EOS6_
Ltmp15:
	b	LBB17_7
LBB17_7:
	add	x0, sp, #120
	bl	__ZNSt3__112basic_stringIcNS_11char_traitsIcEENS_9allocatorIcEEED1Ev
	ldur	w0, [x29, #-104]
Ltmp17:
	add	x8, sp, #96
	bl	__ZNSt3__19to_stringEi
Ltmp18:
	b	LBB17_8
LBB17_8:
Ltmp19:
	ldr	x0, [sp, #8]                    ; 8-byte Folded Reload
	add	x1, sp, #96
	bl	__ZNSt3__16vectorINS_12basic_stringIcNS_11char_traitsIcEENS_9allocatorIcEEEENS4_IS6_EEE9push_backB6v15006EOS6_
Ltmp20:
	b	LBB17_9
LBB17_9:
	add	x0, sp, #96
	bl	__ZNSt3__112basic_stringIcNS_11char_traitsIcEENS_9allocatorIcEEED1Ev
	ldur	w0, [x29, #-108]
Ltmp22:
	add	x8, sp, #72
	bl	__ZNSt3__19to_stringEi
Ltmp23:
	b	LBB17_10
LBB17_10:
Ltmp24:
	ldr	x0, [sp, #8]                    ; 8-byte Folded Reload
	add	x1, sp, #72
	bl	__ZNSt3__16vectorINS_12basic_stringIcNS_11char_traitsIcEENS_9allocatorIcEEEENS4_IS6_EEE9push_backB6v15006EOS6_
Ltmp25:
	b	LBB17_11
LBB17_11:
	add	x0, sp, #72
	bl	__ZNSt3__112basic_stringIcNS_11char_traitsIcEENS_9allocatorIcEEED1Ev
	ldur	w0, [x29, #-112]
Ltmp27:
	add	x8, sp, #48
	bl	__ZNSt3__19to_stringEi
Ltmp28:
	b	LBB17_12
LBB17_12:
Ltmp29:
	ldr	x0, [sp, #8]                    ; 8-byte Folded Reload
	add	x1, sp, #48
	bl	__ZNSt3__16vectorINS_12basic_stringIcNS_11char_traitsIcEENS_9allocatorIcEEEENS4_IS6_EEE9push_backB6v15006EOS6_
Ltmp30:
	b	LBB17_13
LBB17_13:
	add	x0, sp, #48
	bl	__ZNSt3__112basic_stringIcNS_11char_traitsIcEENS_9allocatorIcEEED1Ev
	ldur	x0, [x29, #-72]
Ltmp32:
	add	x8, sp, #24
	bl	__ZNSt3__19to_stringEl
Ltmp33:
	b	LBB17_14
LBB17_14:
Ltmp35:
	ldr	x0, [sp, #8]                    ; 8-byte Folded Reload
	add	x1, sp, #24
	bl	__ZNSt3__16vectorINS_12basic_stringIcNS_11char_traitsIcEENS_9allocatorIcEEEENS4_IS6_EEE9push_backB6v15006EOS6_
Ltmp36:
	b	LBB17_15
LBB17_15:
	add	x0, sp, #24
	bl	__ZNSt3__112basic_stringIcNS_11char_traitsIcEENS_9allocatorIcEEED1Ev
	mov	w8, #1
	and	w8, w8, #0x1
	and	w8, w8, #0x1
	sturb	w8, [x29, #-33]
	ldurb	w8, [x29, #-33]
	tbnz	w8, #0, LBB17_25
	b	LBB17_24
LBB17_16:
Ltmp34:
	mov	x8, x1
	stur	x0, [x29, #-120]
	stur	w8, [x29, #-124]
	b	LBB17_26
LBB17_17:
Ltmp6:
	mov	x8, x1
	stur	x0, [x29, #-120]
	stur	w8, [x29, #-124]
	sub	x0, x29, #152
	bl	__ZNSt3__112basic_stringIcNS_11char_traitsIcEENS_9allocatorIcEEED1Ev
	b	LBB17_26
LBB17_18:
Ltmp11:
	mov	x8, x1
	stur	x0, [x29, #-120]
	stur	w8, [x29, #-124]
	add	x0, sp, #144
	bl	__ZNSt3__112basic_stringIcNS_11char_traitsIcEENS_9allocatorIcEEED1Ev
	b	LBB17_26
LBB17_19:
Ltmp16:
	mov	x8, x1
	stur	x0, [x29, #-120]
	stur	w8, [x29, #-124]
	add	x0, sp, #120
	bl	__ZNSt3__112basic_stringIcNS_11char_traitsIcEENS_9allocatorIcEEED1Ev
	b	LBB17_26
LBB17_20:
Ltmp21:
	mov	x8, x1
	stur	x0, [x29, #-120]
	stur	w8, [x29, #-124]
	add	x0, sp, #96
	bl	__ZNSt3__112basic_stringIcNS_11char_traitsIcEENS_9allocatorIcEEED1Ev
	b	LBB17_26
LBB17_21:
Ltmp26:
	mov	x8, x1
	stur	x0, [x29, #-120]
	stur	w8, [x29, #-124]
	add	x0, sp, #72
	bl	__ZNSt3__112basic_stringIcNS_11char_traitsIcEENS_9allocatorIcEEED1Ev
	b	LBB17_26
LBB17_22:
Ltmp31:
	mov	x8, x1
	stur	x0, [x29, #-120]
	stur	w8, [x29, #-124]
	add	x0, sp, #48
	bl	__ZNSt3__112basic_stringIcNS_11char_traitsIcEENS_9allocatorIcEEED1Ev
	b	LBB17_26
LBB17_23:
Ltmp37:
	mov	x8, x1
	stur	x0, [x29, #-120]
	stur	w8, [x29, #-124]
	add	x0, sp, #24
	bl	__ZNSt3__112basic_stringIcNS_11char_traitsIcEENS_9allocatorIcEEED1Ev
	b	LBB17_26
LBB17_24:
	ldr	x0, [sp, #8]                    ; 8-byte Folded Reload
	bl	__ZNSt3__16vectorINS_12basic_stringIcNS_11char_traitsIcEENS_9allocatorIcEEEENS4_IS6_EEED1B6v15006Ev
	b	LBB17_25
LBB17_25:
	ldp	x29, x30, [sp, #320]            ; 16-byte Folded Reload
	ldp	x28, x27, [sp, #304]            ; 16-byte Folded Reload
	add	sp, sp, #336
	retab
LBB17_26:
	ldr	x0, [sp, #8]                    ; 8-byte Folded Reload
	bl	__ZNSt3__16vectorINS_12basic_stringIcNS_11char_traitsIcEENS_9allocatorIcEEEENS4_IS6_EEED1B6v15006Ev
	b	LBB17_27
LBB17_27:
	ldur	x0, [x29, #-120]
	bl	__Unwind_Resume
Lfunc_end0:
	.cfi_endproc
	.section	__TEXT,__gcc_except_tab
	.p2align	2
GCC_except_table17:
Lexception0:
	.byte	255                             ; @LPStart Encoding = omit
	.byte	255                             ; @TType Encoding = omit
	.byte	1                               ; Call site Encoding = uleb128
	.uleb128 Lcst_end0-Lcst_begin0
Lcst_begin0:
	.uleb128 Ltmp0-Lfunc_begin0             ; >> Call Site 1 <<
	.uleb128 Ltmp1-Ltmp0                    ;   Call between Ltmp0 and Ltmp1
	.uleb128 Ltmp34-Lfunc_begin0            ;     jumps to Ltmp34
	.byte	0                               ;   On action: cleanup
	.uleb128 Ltmp1-Lfunc_begin0             ; >> Call Site 2 <<
	.uleb128 Ltmp2-Ltmp1                    ;   Call between Ltmp1 and Ltmp2
	.byte	0                               ;     has no landing pad
	.byte	0                               ;   On action: cleanup
	.uleb128 Ltmp2-Lfunc_begin0             ; >> Call Site 3 <<
	.uleb128 Ltmp3-Ltmp2                    ;   Call between Ltmp2 and Ltmp3
	.uleb128 Ltmp34-Lfunc_begin0            ;     jumps to Ltmp34
	.byte	0                               ;   On action: cleanup
	.uleb128 Ltmp4-Lfunc_begin0             ; >> Call Site 4 <<
	.uleb128 Ltmp5-Ltmp4                    ;   Call between Ltmp4 and Ltmp5
	.uleb128 Ltmp6-Lfunc_begin0             ;     jumps to Ltmp6
	.byte	0                               ;   On action: cleanup
	.uleb128 Ltmp7-Lfunc_begin0             ; >> Call Site 5 <<
	.uleb128 Ltmp8-Ltmp7                    ;   Call between Ltmp7 and Ltmp8
	.uleb128 Ltmp34-Lfunc_begin0            ;     jumps to Ltmp34
	.byte	0                               ;   On action: cleanup
	.uleb128 Ltmp9-Lfunc_begin0             ; >> Call Site 6 <<
	.uleb128 Ltmp10-Ltmp9                   ;   Call between Ltmp9 and Ltmp10
	.uleb128 Ltmp11-Lfunc_begin0            ;     jumps to Ltmp11
	.byte	0                               ;   On action: cleanup
	.uleb128 Ltmp12-Lfunc_begin0            ; >> Call Site 7 <<
	.uleb128 Ltmp13-Ltmp12                  ;   Call between Ltmp12 and Ltmp13
	.uleb128 Ltmp34-Lfunc_begin0            ;     jumps to Ltmp34
	.byte	0                               ;   On action: cleanup
	.uleb128 Ltmp14-Lfunc_begin0            ; >> Call Site 8 <<
	.uleb128 Ltmp15-Ltmp14                  ;   Call between Ltmp14 and Ltmp15
	.uleb128 Ltmp16-Lfunc_begin0            ;     jumps to Ltmp16
	.byte	0                               ;   On action: cleanup
	.uleb128 Ltmp17-Lfunc_begin0            ; >> Call Site 9 <<
	.uleb128 Ltmp18-Ltmp17                  ;   Call between Ltmp17 and Ltmp18
	.uleb128 Ltmp34-Lfunc_begin0            ;     jumps to Ltmp34
	.byte	0                               ;   On action: cleanup
	.uleb128 Ltmp19-Lfunc_begin0            ; >> Call Site 10 <<
	.uleb128 Ltmp20-Ltmp19                  ;   Call between Ltmp19 and Ltmp20
	.uleb128 Ltmp21-Lfunc_begin0            ;     jumps to Ltmp21
	.byte	0                               ;   On action: cleanup
	.uleb128 Ltmp22-Lfunc_begin0            ; >> Call Site 11 <<
	.uleb128 Ltmp23-Ltmp22                  ;   Call between Ltmp22 and Ltmp23
	.uleb128 Ltmp34-Lfunc_begin0            ;     jumps to Ltmp34
	.byte	0                               ;   On action: cleanup
	.uleb128 Ltmp24-Lfunc_begin0            ; >> Call Site 12 <<
	.uleb128 Ltmp25-Ltmp24                  ;   Call between Ltmp24 and Ltmp25
	.uleb128 Ltmp26-Lfunc_begin0            ;     jumps to Ltmp26
	.byte	0                               ;   On action: cleanup
	.uleb128 Ltmp27-Lfunc_begin0            ; >> Call Site 13 <<
	.uleb128 Ltmp28-Ltmp27                  ;   Call between Ltmp27 and Ltmp28
	.uleb128 Ltmp34-Lfunc_begin0            ;     jumps to Ltmp34
	.byte	0                               ;   On action: cleanup
	.uleb128 Ltmp29-Lfunc_begin0            ; >> Call Site 14 <<
	.uleb128 Ltmp30-Ltmp29                  ;   Call between Ltmp29 and Ltmp30
	.uleb128 Ltmp31-Lfunc_begin0            ;     jumps to Ltmp31
	.byte	0                               ;   On action: cleanup
	.uleb128 Ltmp32-Lfunc_begin0            ; >> Call Site 15 <<
	.uleb128 Ltmp33-Ltmp32                  ;   Call between Ltmp32 and Ltmp33
	.uleb128 Ltmp34-Lfunc_begin0            ;     jumps to Ltmp34
	.byte	0                               ;   On action: cleanup
	.uleb128 Ltmp35-Lfunc_begin0            ; >> Call Site 16 <<
	.uleb128 Ltmp36-Ltmp35                  ;   Call between Ltmp35 and Ltmp36
	.uleb128 Ltmp37-Lfunc_begin0            ;     jumps to Ltmp37
	.byte	0                               ;   On action: cleanup
	.uleb128 Ltmp36-Lfunc_begin0            ; >> Call Site 17 <<
	.uleb128 Lfunc_end0-Ltmp36              ;   Call between Ltmp36 and Lfunc_end0
	.byte	0                               ;     has no landing pad
	.byte	0                               ;   On action: cleanup
Lcst_end0:
	.p2align	2
                                        ; -- End function
	.section	__TEXT,__text,regular,pure_instructions
	.private_extern	__ZNSt3__16vectorINS_12basic_stringIcNS_11char_traitsIcEENS_9allocatorIcEEEENS4_IS6_EEEC1B6v15006Ev ; -- Begin function _ZNSt3__16vectorINS_12basic_stringIcNS_11char_traitsIcEENS_9allocatorIcEEEENS4_IS6_EEEC1B6v15006Ev
	.globl	__ZNSt3__16vectorINS_12basic_stringIcNS_11char_traitsIcEENS_9allocatorIcEEEENS4_IS6_EEEC1B6v15006Ev
	.weak_def_can_be_hidden	__ZNSt3__16vectorINS_12basic_stringIcNS_11char_traitsIcEENS_9allocatorIcEEEENS4_IS6_EEEC1B6v15006Ev
	.p2align	2
__ZNSt3__16vectorINS_12basic_stringIcNS_11char_traitsIcEENS_9allocatorIcEEEENS4_IS6_EEEC1B6v15006Ev: ; @_ZNSt3__16vectorINS_12basic_stringIcNS_11char_traitsIcEENS_9allocatorIcEEEENS4_IS6_EEEC1B6v15006Ev
	.cfi_startproc
; %bb.0:
	pacibsp
	sub	sp, sp, #32
	.cfi_def_cfa_offset 32
	stp	x29, x30, [sp, #16]             ; 16-byte Folded Spill
	add	x29, sp, #16
	.cfi_def_cfa w29, 16
	.cfi_offset w30, -8
	.cfi_offset w29, -16
	str	x0, [sp, #8]
	ldr	x0, [sp, #8]
	str	x0, [sp]                        ; 8-byte Folded Spill
	bl	__ZNSt3__16vectorINS_12basic_stringIcNS_11char_traitsIcEENS_9allocatorIcEEEENS4_IS6_EEEC2B6v15006Ev
	ldr	x0, [sp]                        ; 8-byte Folded Reload
	ldp	x29, x30, [sp, #16]             ; 16-byte Folded Reload
	add	sp, sp, #32
	retab
	.cfi_endproc
                                        ; -- End function
	.private_extern	__ZNSt3__16vectorINS_12basic_stringIcNS_11char_traitsIcEENS_9allocatorIcEEEENS4_IS6_EEE9push_backB6v15006EOS6_ ; -- Begin function _ZNSt3__16vectorINS_12basic_stringIcNS_11char_traitsIcEENS_9allocatorIcEEEENS4_IS6_EEE9push_backB6v15006EOS6_
	.globl	__ZNSt3__16vectorINS_12basic_stringIcNS_11char_traitsIcEENS_9allocatorIcEEEENS4_IS6_EEE9push_backB6v15006EOS6_
	.weak_definition	__ZNSt3__16vectorINS_12basic_stringIcNS_11char_traitsIcEENS_9allocatorIcEEEENS4_IS6_EEE9push_backB6v15006EOS6_
	.p2align	2
__ZNSt3__16vectorINS_12basic_stringIcNS_11char_traitsIcEENS_9allocatorIcEEEENS4_IS6_EEE9push_backB6v15006EOS6_: ; @_ZNSt3__16vectorINS_12basic_stringIcNS_11char_traitsIcEENS_9allocatorIcEEEENS4_IS6_EEE9push_backB6v15006EOS6_
	.cfi_startproc
; %bb.0:
	pacibsp
	sub	sp, sp, #48
	.cfi_def_cfa_offset 48
	stp	x29, x30, [sp, #32]             ; 16-byte Folded Spill
	add	x29, sp, #32
	.cfi_def_cfa w29, 16
	.cfi_offset w30, -8
	.cfi_offset w29, -16
	stur	x0, [x29, #-8]
	str	x1, [sp, #16]
	ldur	x0, [x29, #-8]
	str	x0, [sp]                        ; 8-byte Folded Spill
	ldr	x8, [x0, #8]
	str	x8, [sp, #8]                    ; 8-byte Folded Spill
	bl	__ZNSt3__16vectorINS_12basic_stringIcNS_11char_traitsIcEENS_9allocatorIcEEEENS4_IS6_EEE9__end_capB6v15006Ev
	ldr	x8, [sp, #8]                    ; 8-byte Folded Reload
	ldr	x9, [x0]
	subs	x8, x8, x9
	cset	w8, hs
	tbnz	w8, #0, LBB19_2
	b	LBB19_1
LBB19_1:
	ldr	x0, [sp]                        ; 8-byte Folded Reload
	ldr	x1, [sp, #16]
	bl	__ZNSt3__16vectorINS_12basic_stringIcNS_11char_traitsIcEENS_9allocatorIcEEEENS4_IS6_EEE22__construct_one_at_endB6v15006IJS6_EEEvDpOT_
	b	LBB19_3
LBB19_2:
	ldr	x0, [sp]                        ; 8-byte Folded Reload
	ldr	x1, [sp, #16]
	bl	__ZNSt3__16vectorINS_12basic_stringIcNS_11char_traitsIcEENS_9allocatorIcEEEENS4_IS6_EEE21__push_back_slow_pathIS6_EEvOT_
	b	LBB19_3
LBB19_3:
	ldp	x29, x30, [sp, #32]             ; 16-byte Folded Reload
	add	sp, sp, #48
	retab
	.cfi_endproc
                                        ; -- End function
	.private_extern	__ZNSt3__16vectorINS_12basic_stringIcNS_11char_traitsIcEENS_9allocatorIcEEEENS4_IS6_EEED1B6v15006Ev ; -- Begin function _ZNSt3__16vectorINS_12basic_stringIcNS_11char_traitsIcEENS_9allocatorIcEEEENS4_IS6_EEED1B6v15006Ev
	.globl	__ZNSt3__16vectorINS_12basic_stringIcNS_11char_traitsIcEENS_9allocatorIcEEEENS4_IS6_EEED1B6v15006Ev
	.weak_def_can_be_hidden	__ZNSt3__16vectorINS_12basic_stringIcNS_11char_traitsIcEENS_9allocatorIcEEEENS4_IS6_EEED1B6v15006Ev
	.p2align	2
__ZNSt3__16vectorINS_12basic_stringIcNS_11char_traitsIcEENS_9allocatorIcEEEENS4_IS6_EEED1B6v15006Ev: ; @_ZNSt3__16vectorINS_12basic_stringIcNS_11char_traitsIcEENS_9allocatorIcEEEENS4_IS6_EEED1B6v15006Ev
	.cfi_startproc
; %bb.0:
	pacibsp
	sub	sp, sp, #32
	.cfi_def_cfa_offset 32
	stp	x29, x30, [sp, #16]             ; 16-byte Folded Spill
	add	x29, sp, #16
	.cfi_def_cfa w29, 16
	.cfi_offset w30, -8
	.cfi_offset w29, -16
	str	x0, [sp, #8]
	ldr	x0, [sp, #8]
	str	x0, [sp]                        ; 8-byte Folded Spill
	bl	__ZNSt3__16vectorINS_12basic_stringIcNS_11char_traitsIcEENS_9allocatorIcEEEENS4_IS6_EEED2B6v15006Ev
	ldr	x0, [sp]                        ; 8-byte Folded Reload
	ldp	x29, x30, [sp, #16]             ; 16-byte Folded Reload
	add	sp, sp, #32
	retab
	.cfi_endproc
                                        ; -- End function
	.globl	__ZN11SnakeSenzia5Timer25GetCurrentDateTimeWStringEv ; -- Begin function _ZN11SnakeSenzia5Timer25GetCurrentDateTimeWStringEv
	.p2align	2
__ZN11SnakeSenzia5Timer25GetCurrentDateTimeWStringEv: ; @_ZN11SnakeSenzia5Timer25GetCurrentDateTimeWStringEv
Lfunc_begin1:
	.cfi_startproc
	.cfi_personality 155, ___gxx_personality_v0
	.cfi_lsda 16, Lexception1
; %bb.0:
	pacibsp
	sub	sp, sp, #336
	.cfi_def_cfa_offset 336
	stp	x28, x27, [sp, #304]            ; 16-byte Folded Spill
	stp	x29, x30, [sp, #320]            ; 16-byte Folded Spill
	add	x29, sp, #320
	.cfi_def_cfa w29, 16
	.cfi_offset w30, -8
	.cfi_offset w29, -16
	.cfi_offset w27, -24
	.cfi_offset w28, -32
	str	x8, [sp, #8]                    ; 8-byte Folded Spill
	mov	x8, x0
	ldr	x0, [sp, #8]                    ; 8-byte Folded Reload
	mov	x9, x0
	stur	x9, [x29, #-24]
	stur	x8, [x29, #-32]
	mov	w8, #0
	mov	w9, #1
	and	w8, w8, #0x1
	and	w8, w8, w9
	sturb	w8, [x29, #-33]
	bl	__ZNSt3__16vectorINS_12basic_stringIwNS_11char_traitsIwEENS_9allocatorIwEEEENS4_IS6_EEEC1B6v15006Ev
	bl	__ZNSt3__16chrono12system_clock3nowEv
	mov	x8, x0
	sub	x0, x29, #48
	stur	x8, [x29, #-48]
	bl	__ZNSt3__16chrono12system_clock9to_time_tERKNS0_10time_pointIS1_NS0_8durationIxNS_5ratioILl1ELl1000000EEEEEEE
	mov	x8, x0
	sub	x0, x29, #56
	stur	x8, [x29, #-56]
Ltmp38:
	bl	_localtime
	str	x0, [sp, #16]                   ; 8-byte Folded Spill
Ltmp39:
	b	LBB21_1
LBB21_1:
	ldr	x1, [sp, #16]                   ; 8-byte Folded Reload
	sub	x0, x29, #112
	mov	x2, #56
	bl	_memcpy
	ldur	w0, [x29, #-100]
Ltmp40:
	sub	x8, x29, #152
	bl	__ZNSt3__110to_wstringEi
Ltmp41:
	b	LBB21_2
LBB21_2:
Ltmp42:
	ldr	x0, [sp, #8]                    ; 8-byte Folded Reload
	sub	x1, x29, #152
	bl	__ZNSt3__16vectorINS_12basic_stringIwNS_11char_traitsIwEENS_9allocatorIwEEEENS4_IS6_EEE9push_backB6v15006EOS6_
Ltmp43:
	b	LBB21_3
LBB21_3:
	sub	x0, x29, #152
	bl	__ZNSt3__112basic_stringIwNS_11char_traitsIwEENS_9allocatorIwEEED1Ev
	ldur	w8, [x29, #-96]
	add	w0, w8, #1
Ltmp45:
	add	x8, sp, #144
	bl	__ZNSt3__110to_wstringEi
Ltmp46:
	b	LBB21_4
LBB21_4:
Ltmp47:
	ldr	x0, [sp, #8]                    ; 8-byte Folded Reload
	add	x1, sp, #144
	bl	__ZNSt3__16vectorINS_12basic_stringIwNS_11char_traitsIwEENS_9allocatorIwEEEENS4_IS6_EEE9push_backB6v15006EOS6_
Ltmp48:
	b	LBB21_5
LBB21_5:
	add	x0, sp, #144
	bl	__ZNSt3__112basic_stringIwNS_11char_traitsIwEENS_9allocatorIwEEED1Ev
	ldur	w8, [x29, #-92]
	add	w0, w8, #1900
Ltmp50:
	add	x8, sp, #120
	bl	__ZNSt3__110to_wstringEi
Ltmp51:
	b	LBB21_6
LBB21_6:
Ltmp52:
	ldr	x0, [sp, #8]                    ; 8-byte Folded Reload
	add	x1, sp, #120
	bl	__ZNSt3__16vectorINS_12basic_stringIwNS_11char_traitsIwEENS_9allocatorIwEEEENS4_IS6_EEE9push_backB6v15006EOS6_
Ltmp53:
	b	LBB21_7
LBB21_7:
	add	x0, sp, #120
	bl	__ZNSt3__112basic_stringIwNS_11char_traitsIwEENS_9allocatorIwEEED1Ev
	ldur	w0, [x29, #-104]
Ltmp55:
	add	x8, sp, #96
	bl	__ZNSt3__110to_wstringEi
Ltmp56:
	b	LBB21_8
LBB21_8:
Ltmp57:
	ldr	x0, [sp, #8]                    ; 8-byte Folded Reload
	add	x1, sp, #96
	bl	__ZNSt3__16vectorINS_12basic_stringIwNS_11char_traitsIwEENS_9allocatorIwEEEENS4_IS6_EEE9push_backB6v15006EOS6_
Ltmp58:
	b	LBB21_9
LBB21_9:
	add	x0, sp, #96
	bl	__ZNSt3__112basic_stringIwNS_11char_traitsIwEENS_9allocatorIwEEED1Ev
	ldur	w0, [x29, #-108]
Ltmp60:
	add	x8, sp, #72
	bl	__ZNSt3__110to_wstringEi
Ltmp61:
	b	LBB21_10
LBB21_10:
Ltmp62:
	ldr	x0, [sp, #8]                    ; 8-byte Folded Reload
	add	x1, sp, #72
	bl	__ZNSt3__16vectorINS_12basic_stringIwNS_11char_traitsIwEENS_9allocatorIwEEEENS4_IS6_EEE9push_backB6v15006EOS6_
Ltmp63:
	b	LBB21_11
LBB21_11:
	add	x0, sp, #72
	bl	__ZNSt3__112basic_stringIwNS_11char_traitsIwEENS_9allocatorIwEEED1Ev
	ldur	w0, [x29, #-112]
Ltmp65:
	add	x8, sp, #48
	bl	__ZNSt3__110to_wstringEi
Ltmp66:
	b	LBB21_12
LBB21_12:
Ltmp67:
	ldr	x0, [sp, #8]                    ; 8-byte Folded Reload
	add	x1, sp, #48
	bl	__ZNSt3__16vectorINS_12basic_stringIwNS_11char_traitsIwEENS_9allocatorIwEEEENS4_IS6_EEE9push_backB6v15006EOS6_
Ltmp68:
	b	LBB21_13
LBB21_13:
	add	x0, sp, #48
	bl	__ZNSt3__112basic_stringIwNS_11char_traitsIwEENS_9allocatorIwEEED1Ev
	ldur	x0, [x29, #-72]
Ltmp70:
	add	x8, sp, #24
	bl	__ZNSt3__110to_wstringEl
Ltmp71:
	b	LBB21_14
LBB21_14:
Ltmp73:
	ldr	x0, [sp, #8]                    ; 8-byte Folded Reload
	add	x1, sp, #24
	bl	__ZNSt3__16vectorINS_12basic_stringIwNS_11char_traitsIwEENS_9allocatorIwEEEENS4_IS6_EEE9push_backB6v15006EOS6_
Ltmp74:
	b	LBB21_15
LBB21_15:
	add	x0, sp, #24
	bl	__ZNSt3__112basic_stringIwNS_11char_traitsIwEENS_9allocatorIwEEED1Ev
	mov	w8, #1
	and	w8, w8, #0x1
	and	w8, w8, #0x1
	sturb	w8, [x29, #-33]
	ldurb	w8, [x29, #-33]
	tbnz	w8, #0, LBB21_25
	b	LBB21_24
LBB21_16:
Ltmp72:
	mov	x8, x1
	stur	x0, [x29, #-120]
	stur	w8, [x29, #-124]
	b	LBB21_26
LBB21_17:
Ltmp44:
	mov	x8, x1
	stur	x0, [x29, #-120]
	stur	w8, [x29, #-124]
	sub	x0, x29, #152
	bl	__ZNSt3__112basic_stringIwNS_11char_traitsIwEENS_9allocatorIwEEED1Ev
	b	LBB21_26
LBB21_18:
Ltmp49:
	mov	x8, x1
	stur	x0, [x29, #-120]
	stur	w8, [x29, #-124]
	add	x0, sp, #144
	bl	__ZNSt3__112basic_stringIwNS_11char_traitsIwEENS_9allocatorIwEEED1Ev
	b	LBB21_26
LBB21_19:
Ltmp54:
	mov	x8, x1
	stur	x0, [x29, #-120]
	stur	w8, [x29, #-124]
	add	x0, sp, #120
	bl	__ZNSt3__112basic_stringIwNS_11char_traitsIwEENS_9allocatorIwEEED1Ev
	b	LBB21_26
LBB21_20:
Ltmp59:
	mov	x8, x1
	stur	x0, [x29, #-120]
	stur	w8, [x29, #-124]
	add	x0, sp, #96
	bl	__ZNSt3__112basic_stringIwNS_11char_traitsIwEENS_9allocatorIwEEED1Ev
	b	LBB21_26
LBB21_21:
Ltmp64:
	mov	x8, x1
	stur	x0, [x29, #-120]
	stur	w8, [x29, #-124]
	add	x0, sp, #72
	bl	__ZNSt3__112basic_stringIwNS_11char_traitsIwEENS_9allocatorIwEEED1Ev
	b	LBB21_26
LBB21_22:
Ltmp69:
	mov	x8, x1
	stur	x0, [x29, #-120]
	stur	w8, [x29, #-124]
	add	x0, sp, #48
	bl	__ZNSt3__112basic_stringIwNS_11char_traitsIwEENS_9allocatorIwEEED1Ev
	b	LBB21_26
LBB21_23:
Ltmp75:
	mov	x8, x1
	stur	x0, [x29, #-120]
	stur	w8, [x29, #-124]
	add	x0, sp, #24
	bl	__ZNSt3__112basic_stringIwNS_11char_traitsIwEENS_9allocatorIwEEED1Ev
	b	LBB21_26
LBB21_24:
	ldr	x0, [sp, #8]                    ; 8-byte Folded Reload
	bl	__ZNSt3__16vectorINS_12basic_stringIwNS_11char_traitsIwEENS_9allocatorIwEEEENS4_IS6_EEED1B6v15006Ev
	b	LBB21_25
LBB21_25:
	ldp	x29, x30, [sp, #320]            ; 16-byte Folded Reload
	ldp	x28, x27, [sp, #304]            ; 16-byte Folded Reload
	add	sp, sp, #336
	retab
LBB21_26:
	ldr	x0, [sp, #8]                    ; 8-byte Folded Reload
	bl	__ZNSt3__16vectorINS_12basic_stringIwNS_11char_traitsIwEENS_9allocatorIwEEEENS4_IS6_EEED1B6v15006Ev
	b	LBB21_27
LBB21_27:
	ldur	x0, [x29, #-120]
	bl	__Unwind_Resume
Lfunc_end1:
	.cfi_endproc
	.section	__TEXT,__gcc_except_tab
	.p2align	2
GCC_except_table21:
Lexception1:
	.byte	255                             ; @LPStart Encoding = omit
	.byte	255                             ; @TType Encoding = omit
	.byte	1                               ; Call site Encoding = uleb128
	.uleb128 Lcst_end1-Lcst_begin1
Lcst_begin1:
	.uleb128 Ltmp38-Lfunc_begin1            ; >> Call Site 1 <<
	.uleb128 Ltmp39-Ltmp38                  ;   Call between Ltmp38 and Ltmp39
	.uleb128 Ltmp72-Lfunc_begin1            ;     jumps to Ltmp72
	.byte	0                               ;   On action: cleanup
	.uleb128 Ltmp39-Lfunc_begin1            ; >> Call Site 2 <<
	.uleb128 Ltmp40-Ltmp39                  ;   Call between Ltmp39 and Ltmp40
	.byte	0                               ;     has no landing pad
	.byte	0                               ;   On action: cleanup
	.uleb128 Ltmp40-Lfunc_begin1            ; >> Call Site 3 <<
	.uleb128 Ltmp41-Ltmp40                  ;   Call between Ltmp40 and Ltmp41
	.uleb128 Ltmp72-Lfunc_begin1            ;     jumps to Ltmp72
	.byte	0                               ;   On action: cleanup
	.uleb128 Ltmp42-Lfunc_begin1            ; >> Call Site 4 <<
	.uleb128 Ltmp43-Ltmp42                  ;   Call between Ltmp42 and Ltmp43
	.uleb128 Ltmp44-Lfunc_begin1            ;     jumps to Ltmp44
	.byte	0                               ;   On action: cleanup
	.uleb128 Ltmp45-Lfunc_begin1            ; >> Call Site 5 <<
	.uleb128 Ltmp46-Ltmp45                  ;   Call between Ltmp45 and Ltmp46
	.uleb128 Ltmp72-Lfunc_begin1            ;     jumps to Ltmp72
	.byte	0                               ;   On action: cleanup
	.uleb128 Ltmp47-Lfunc_begin1            ; >> Call Site 6 <<
	.uleb128 Ltmp48-Ltmp47                  ;   Call between Ltmp47 and Ltmp48
	.uleb128 Ltmp49-Lfunc_begin1            ;     jumps to Ltmp49
	.byte	0                               ;   On action: cleanup
	.uleb128 Ltmp50-Lfunc_begin1            ; >> Call Site 7 <<
	.uleb128 Ltmp51-Ltmp50                  ;   Call between Ltmp50 and Ltmp51
	.uleb128 Ltmp72-Lfunc_begin1            ;     jumps to Ltmp72
	.byte	0                               ;   On action: cleanup
	.uleb128 Ltmp52-Lfunc_begin1            ; >> Call Site 8 <<
	.uleb128 Ltmp53-Ltmp52                  ;   Call between Ltmp52 and Ltmp53
	.uleb128 Ltmp54-Lfunc_begin1            ;     jumps to Ltmp54
	.byte	0                               ;   On action: cleanup
	.uleb128 Ltmp55-Lfunc_begin1            ; >> Call Site 9 <<
	.uleb128 Ltmp56-Ltmp55                  ;   Call between Ltmp55 and Ltmp56
	.uleb128 Ltmp72-Lfunc_begin1            ;     jumps to Ltmp72
	.byte	0                               ;   On action: cleanup
	.uleb128 Ltmp57-Lfunc_begin1            ; >> Call Site 10 <<
	.uleb128 Ltmp58-Ltmp57                  ;   Call between Ltmp57 and Ltmp58
	.uleb128 Ltmp59-Lfunc_begin1            ;     jumps to Ltmp59
	.byte	0                               ;   On action: cleanup
	.uleb128 Ltmp60-Lfunc_begin1            ; >> Call Site 11 <<
	.uleb128 Ltmp61-Ltmp60                  ;   Call between Ltmp60 and Ltmp61
	.uleb128 Ltmp72-Lfunc_begin1            ;     jumps to Ltmp72
	.byte	0                               ;   On action: cleanup
	.uleb128 Ltmp62-Lfunc_begin1            ; >> Call Site 12 <<
	.uleb128 Ltmp63-Ltmp62                  ;   Call between Ltmp62 and Ltmp63
	.uleb128 Ltmp64-Lfunc_begin1            ;     jumps to Ltmp64
	.byte	0                               ;   On action: cleanup
	.uleb128 Ltmp65-Lfunc_begin1            ; >> Call Site 13 <<
	.uleb128 Ltmp66-Ltmp65                  ;   Call between Ltmp65 and Ltmp66
	.uleb128 Ltmp72-Lfunc_begin1            ;     jumps to Ltmp72
	.byte	0                               ;   On action: cleanup
	.uleb128 Ltmp67-Lfunc_begin1            ; >> Call Site 14 <<
	.uleb128 Ltmp68-Ltmp67                  ;   Call between Ltmp67 and Ltmp68
	.uleb128 Ltmp69-Lfunc_begin1            ;     jumps to Ltmp69
	.byte	0                               ;   On action: cleanup
	.uleb128 Ltmp70-Lfunc_begin1            ; >> Call Site 15 <<
	.uleb128 Ltmp71-Ltmp70                  ;   Call between Ltmp70 and Ltmp71
	.uleb128 Ltmp72-Lfunc_begin1            ;     jumps to Ltmp72
	.byte	0                               ;   On action: cleanup
	.uleb128 Ltmp73-Lfunc_begin1            ; >> Call Site 16 <<
	.uleb128 Ltmp74-Ltmp73                  ;   Call between Ltmp73 and Ltmp74
	.uleb128 Ltmp75-Lfunc_begin1            ;     jumps to Ltmp75
	.byte	0                               ;   On action: cleanup
	.uleb128 Ltmp74-Lfunc_begin1            ; >> Call Site 17 <<
	.uleb128 Lfunc_end1-Ltmp74              ;   Call between Ltmp74 and Lfunc_end1
	.byte	0                               ;     has no landing pad
	.byte	0                               ;   On action: cleanup
Lcst_end1:
	.p2align	2
                                        ; -- End function
	.section	__TEXT,__text,regular,pure_instructions
	.private_extern	__ZNSt3__16vectorINS_12basic_stringIwNS_11char_traitsIwEENS_9allocatorIwEEEENS4_IS6_EEEC1B6v15006Ev ; -- Begin function _ZNSt3__16vectorINS_12basic_stringIwNS_11char_traitsIwEENS_9allocatorIwEEEENS4_IS6_EEEC1B6v15006Ev
	.globl	__ZNSt3__16vectorINS_12basic_stringIwNS_11char_traitsIwEENS_9allocatorIwEEEENS4_IS6_EEEC1B6v15006Ev
	.weak_def_can_be_hidden	__ZNSt3__16vectorINS_12basic_stringIwNS_11char_traitsIwEENS_9allocatorIwEEEENS4_IS6_EEEC1B6v15006Ev
	.p2align	2
__ZNSt3__16vectorINS_12basic_stringIwNS_11char_traitsIwEENS_9allocatorIwEEEENS4_IS6_EEEC1B6v15006Ev: ; @_ZNSt3__16vectorINS_12basic_stringIwNS_11char_traitsIwEENS_9allocatorIwEEEENS4_IS6_EEEC1B6v15006Ev
	.cfi_startproc
; %bb.0:
	pacibsp
	sub	sp, sp, #32
	.cfi_def_cfa_offset 32
	stp	x29, x30, [sp, #16]             ; 16-byte Folded Spill
	add	x29, sp, #16
	.cfi_def_cfa w29, 16
	.cfi_offset w30, -8
	.cfi_offset w29, -16
	str	x0, [sp, #8]
	ldr	x0, [sp, #8]
	str	x0, [sp]                        ; 8-byte Folded Spill
	bl	__ZNSt3__16vectorINS_12basic_stringIwNS_11char_traitsIwEENS_9allocatorIwEEEENS4_IS6_EEEC2B6v15006Ev
	ldr	x0, [sp]                        ; 8-byte Folded Reload
	ldp	x29, x30, [sp, #16]             ; 16-byte Folded Reload
	add	sp, sp, #32
	retab
	.cfi_endproc
                                        ; -- End function
	.private_extern	__ZNSt3__16vectorINS_12basic_stringIwNS_11char_traitsIwEENS_9allocatorIwEEEENS4_IS6_EEE9push_backB6v15006EOS6_ ; -- Begin function _ZNSt3__16vectorINS_12basic_stringIwNS_11char_traitsIwEENS_9allocatorIwEEEENS4_IS6_EEE9push_backB6v15006EOS6_
	.globl	__ZNSt3__16vectorINS_12basic_stringIwNS_11char_traitsIwEENS_9allocatorIwEEEENS4_IS6_EEE9push_backB6v15006EOS6_
	.weak_definition	__ZNSt3__16vectorINS_12basic_stringIwNS_11char_traitsIwEENS_9allocatorIwEEEENS4_IS6_EEE9push_backB6v15006EOS6_
	.p2align	2
__ZNSt3__16vectorINS_12basic_stringIwNS_11char_traitsIwEENS_9allocatorIwEEEENS4_IS6_EEE9push_backB6v15006EOS6_: ; @_ZNSt3__16vectorINS_12basic_stringIwNS_11char_traitsIwEENS_9allocatorIwEEEENS4_IS6_EEE9push_backB6v15006EOS6_
	.cfi_startproc
; %bb.0:
	pacibsp
	sub	sp, sp, #48
	.cfi_def_cfa_offset 48
	stp	x29, x30, [sp, #32]             ; 16-byte Folded Spill
	add	x29, sp, #32
	.cfi_def_cfa w29, 16
	.cfi_offset w30, -8
	.cfi_offset w29, -16
	stur	x0, [x29, #-8]
	str	x1, [sp, #16]
	ldur	x0, [x29, #-8]
	str	x0, [sp]                        ; 8-byte Folded Spill
	ldr	x8, [x0, #8]
	str	x8, [sp, #8]                    ; 8-byte Folded Spill
	bl	__ZNSt3__16vectorINS_12basic_stringIwNS_11char_traitsIwEENS_9allocatorIwEEEENS4_IS6_EEE9__end_capB6v15006Ev
	ldr	x8, [sp, #8]                    ; 8-byte Folded Reload
	ldr	x9, [x0]
	subs	x8, x8, x9
	cset	w8, hs
	tbnz	w8, #0, LBB23_2
	b	LBB23_1
LBB23_1:
	ldr	x0, [sp]                        ; 8-byte Folded Reload
	ldr	x1, [sp, #16]
	bl	__ZNSt3__16vectorINS_12basic_stringIwNS_11char_traitsIwEENS_9allocatorIwEEEENS4_IS6_EEE22__construct_one_at_endB6v15006IJS6_EEEvDpOT_
	b	LBB23_3
LBB23_2:
	ldr	x0, [sp]                        ; 8-byte Folded Reload
	ldr	x1, [sp, #16]
	bl	__ZNSt3__16vectorINS_12basic_stringIwNS_11char_traitsIwEENS_9allocatorIwEEEENS4_IS6_EEE21__push_back_slow_pathIS6_EEvOT_
	b	LBB23_3
LBB23_3:
	ldp	x29, x30, [sp, #32]             ; 16-byte Folded Reload
	add	sp, sp, #48
	retab
	.cfi_endproc
                                        ; -- End function
	.private_extern	__ZNSt3__16vectorINS_12basic_stringIwNS_11char_traitsIwEENS_9allocatorIwEEEENS4_IS6_EEED1B6v15006Ev ; -- Begin function _ZNSt3__16vectorINS_12basic_stringIwNS_11char_traitsIwEENS_9allocatorIwEEEENS4_IS6_EEED1B6v15006Ev
	.globl	__ZNSt3__16vectorINS_12basic_stringIwNS_11char_traitsIwEENS_9allocatorIwEEEENS4_IS6_EEED1B6v15006Ev
	.weak_def_can_be_hidden	__ZNSt3__16vectorINS_12basic_stringIwNS_11char_traitsIwEENS_9allocatorIwEEEENS4_IS6_EEED1B6v15006Ev
	.p2align	2
__ZNSt3__16vectorINS_12basic_stringIwNS_11char_traitsIwEENS_9allocatorIwEEEENS4_IS6_EEED1B6v15006Ev: ; @_ZNSt3__16vectorINS_12basic_stringIwNS_11char_traitsIwEENS_9allocatorIwEEEENS4_IS6_EEED1B6v15006Ev
	.cfi_startproc
; %bb.0:
	pacibsp
	sub	sp, sp, #32
	.cfi_def_cfa_offset 32
	stp	x29, x30, [sp, #16]             ; 16-byte Folded Spill
	add	x29, sp, #16
	.cfi_def_cfa w29, 16
	.cfi_offset w30, -8
	.cfi_offset w29, -16
	str	x0, [sp, #8]
	ldr	x0, [sp, #8]
	str	x0, [sp]                        ; 8-byte Folded Spill
	bl	__ZNSt3__16vectorINS_12basic_stringIwNS_11char_traitsIwEENS_9allocatorIwEEEENS4_IS6_EEED2B6v15006Ev
	ldr	x0, [sp]                        ; 8-byte Folded Reload
	ldp	x29, x30, [sp, #16]             ; 16-byte Folded Reload
	add	sp, sp, #32
	retab
	.cfi_endproc
                                        ; -- End function
	.globl	__ZN11SnakeSenzia7Logging8printLogENSt3__112basic_stringIcNS1_11char_traitsIcEENS1_9allocatorIcEEEES7_PNS_5TimerE ; -- Begin function _ZN11SnakeSenzia7Logging8printLogENSt3__112basic_stringIcNS1_11char_traitsIcEENS1_9allocatorIcEEEES7_PNS_5TimerE
	.p2align	2
__ZN11SnakeSenzia7Logging8printLogENSt3__112basic_stringIcNS1_11char_traitsIcEENS1_9allocatorIcEEEES7_PNS_5TimerE: ; @_ZN11SnakeSenzia7Logging8printLogENSt3__112basic_stringIcNS1_11char_traitsIcEENS1_9allocatorIcEEEES7_PNS_5TimerE
Lfunc_begin2:
	.cfi_startproc
	.cfi_personality 155, ___gxx_personality_v0
	.cfi_lsda 16, Lexception2
; %bb.0:
	pacibsp
	sub	sp, sp, #480
	.cfi_def_cfa_offset 480
	stp	x28, x27, [sp, #448]            ; 16-byte Folded Spill
	stp	x29, x30, [sp, #464]            ; 16-byte Folded Spill
	add	x29, sp, #464
	.cfi_def_cfa w29, 16
	.cfi_offset w30, -8
	.cfi_offset w29, -16
	.cfi_offset w27, -24
	.cfi_offset w28, -32
	stur	x1, [x29, #-152]                ; 8-byte Folded Spill
	stur	x2, [x29, #-144]                ; 8-byte Folded Spill
                                        ; implicit-def: $x16
                                        ; implicit-def: $x17
	adrp	x16, __ZNSt3__14endlIcNS_11char_traitsIcEEEERNS_13basic_ostreamIT_T0_EES7_@GOTPAGE
	ldr	x16, [x16, __ZNSt3__14endlIcNS_11char_traitsIcEEEERNS_13basic_ostreamIT_T0_EES7_@GOTPAGEOFF]
	paciza	x16
	stur	x16, [x29, #-136]               ; 8-byte Folded Spill
	stur	x0, [x29, #-24]
	stur	x3, [x29, #-32]
	ldur	x0, [x29, #-32]
	sub	x8, x29, #56
	bl	__ZN11SnakeSenzia5Timer18GetCurrentDateTimeEv
Ltmp76:
	adrp	x0, __ZNSt3__14coutE@GOTPAGE
	ldr	x0, [x0, __ZNSt3__14coutE@GOTPAGEOFF]
	adrp	x1, l_.str.36@PAGE
	add	x1, x1, l_.str.36@PAGEOFF
	bl	__ZNSt3__1lsINS_11char_traitsIcEEEERNS_13basic_ostreamIcT_EES6_PKc
	stur	x0, [x29, #-128]                ; 8-byte Folded Spill
Ltmp77:
	b	LBB25_1
LBB25_1:
Ltmp78:
	mov	w0, #48
	bl	__ZNSt3__17setfillB6v15006IcEENS_8__iom_t4IT_EES2_
	stur	w0, [x29, #-156]                ; 4-byte Folded Spill
Ltmp79:
	b	LBB25_2
LBB25_2:
	ldur	x0, [x29, #-128]                ; 8-byte Folded Reload
	ldur	w8, [x29, #-156]                ; 4-byte Folded Reload
	sub	x1, x29, #69
	sturb	w8, [x29, #-69]
Ltmp80:
	bl	__ZNSt3__1lsB6v15006INS_11char_traitsIcEEEERNS_13basic_ostreamIcT_EES6_RKNS_8__iom_t4IcEE
	stur	x0, [x29, #-168]                ; 8-byte Folded Spill
Ltmp81:
	b	LBB25_3
LBB25_3:
Ltmp82:
	mov	w0, #4
	bl	__ZNSt3__14setwB6v15006Ei
	stur	w0, [x29, #-172]                ; 4-byte Folded Spill
Ltmp83:
	b	LBB25_4
LBB25_4:
	ldur	x0, [x29, #-168]                ; 8-byte Folded Reload
	ldur	w8, [x29, #-172]                ; 4-byte Folded Reload
	sub	x1, x29, #76
	stur	w8, [x29, #-76]
Ltmp84:
	bl	__ZNSt3__1lsB6v15006IcNS_11char_traitsIcEEEERNS_13basic_ostreamIT_T0_EES7_RKNS_8__iom_t6E
	stur	x0, [x29, #-184]                ; 8-byte Folded Spill
Ltmp85:
	b	LBB25_5
LBB25_5:
	sub	x0, x29, #56
	mov	x1, #2
	bl	__ZNSt3__16vectorINS_12basic_stringIcNS_11char_traitsIcEENS_9allocatorIcEEEENS4_IS6_EEEixB6v15006Em
	mov	x1, x0
	ldur	x0, [x29, #-184]                ; 8-byte Folded Reload
Ltmp86:
	bl	__ZNSt3__1lsIcNS_11char_traitsIcEENS_9allocatorIcEEEERNS_13basic_ostreamIT_T0_EES9_RKNS_12basic_stringIS6_S7_T1_EE
	stur	x0, [x29, #-192]                ; 8-byte Folded Spill
Ltmp87:
	b	LBB25_6
LBB25_6:
Ltmp88:
	ldur	x0, [x29, #-192]                ; 8-byte Folded Reload
	adrp	x1, l_.str.37@PAGE
	add	x1, x1, l_.str.37@PAGEOFF
	bl	__ZNSt3__1lsINS_11char_traitsIcEEEERNS_13basic_ostreamIcT_EES6_PKc
	stur	x0, [x29, #-200]                ; 8-byte Folded Spill
Ltmp89:
	b	LBB25_7
LBB25_7:
Ltmp90:
	mov	w0, #48
	bl	__ZNSt3__17setfillB6v15006IcEENS_8__iom_t4IT_EES2_
	stur	w0, [x29, #-204]                ; 4-byte Folded Spill
Ltmp91:
	b	LBB25_8
LBB25_8:
	ldur	x0, [x29, #-200]                ; 8-byte Folded Reload
	ldur	w8, [x29, #-204]                ; 4-byte Folded Reload
	sub	x1, x29, #77
	sturb	w8, [x29, #-77]
Ltmp92:
	bl	__ZNSt3__1lsB6v15006INS_11char_traitsIcEEEERNS_13basic_ostreamIcT_EES6_RKNS_8__iom_t4IcEE
	stur	x0, [x29, #-216]                ; 8-byte Folded Spill
Ltmp93:
	b	LBB25_9
LBB25_9:
Ltmp94:
	mov	w0, #2
	bl	__ZNSt3__14setwB6v15006Ei
	stur	w0, [x29, #-220]                ; 4-byte Folded Spill
Ltmp95:
	b	LBB25_10
LBB25_10:
	ldur	x0, [x29, #-216]                ; 8-byte Folded Reload
	ldur	w8, [x29, #-220]                ; 4-byte Folded Reload
	sub	x1, x29, #84
	stur	w8, [x29, #-84]
Ltmp96:
	bl	__ZNSt3__1lsB6v15006IcNS_11char_traitsIcEEEERNS_13basic_ostreamIT_T0_EES7_RKNS_8__iom_t6E
	str	x0, [sp, #232]                  ; 8-byte Folded Spill
Ltmp97:
	b	LBB25_11
LBB25_11:
	sub	x0, x29, #56
	mov	x1, #1
	bl	__ZNSt3__16vectorINS_12basic_stringIcNS_11char_traitsIcEENS_9allocatorIcEEEENS4_IS6_EEEixB6v15006Em
	mov	x1, x0
	ldr	x0, [sp, #232]                  ; 8-byte Folded Reload
Ltmp98:
	bl	__ZNSt3__1lsIcNS_11char_traitsIcEENS_9allocatorIcEEEERNS_13basic_ostreamIT_T0_EES9_RKNS_12basic_stringIS6_S7_T1_EE
	str	x0, [sp, #224]                  ; 8-byte Folded Spill
Ltmp99:
	b	LBB25_12
LBB25_12:
Ltmp100:
	ldr	x0, [sp, #224]                  ; 8-byte Folded Reload
	adrp	x1, l_.str.37@PAGE
	add	x1, x1, l_.str.37@PAGEOFF
	bl	__ZNSt3__1lsINS_11char_traitsIcEEEERNS_13basic_ostreamIcT_EES6_PKc
	str	x0, [sp, #216]                  ; 8-byte Folded Spill
Ltmp101:
	b	LBB25_13
LBB25_13:
Ltmp102:
	mov	w0, #48
	bl	__ZNSt3__17setfillB6v15006IcEENS_8__iom_t4IT_EES2_
	str	w0, [sp, #212]                  ; 4-byte Folded Spill
Ltmp103:
	b	LBB25_14
LBB25_14:
	ldr	x0, [sp, #216]                  ; 8-byte Folded Reload
	ldr	w8, [sp, #212]                  ; 4-byte Folded Reload
	sub	x1, x29, #85
	sturb	w8, [x29, #-85]
Ltmp104:
	bl	__ZNSt3__1lsB6v15006INS_11char_traitsIcEEEERNS_13basic_ostreamIcT_EES6_RKNS_8__iom_t4IcEE
	str	x0, [sp, #200]                  ; 8-byte Folded Spill
Ltmp105:
	b	LBB25_15
LBB25_15:
Ltmp106:
	mov	w0, #2
	bl	__ZNSt3__14setwB6v15006Ei
	str	w0, [sp, #196]                  ; 4-byte Folded Spill
Ltmp107:
	b	LBB25_16
LBB25_16:
	ldr	x0, [sp, #200]                  ; 8-byte Folded Reload
	ldr	w8, [sp, #196]                  ; 4-byte Folded Reload
	sub	x1, x29, #92
	stur	w8, [x29, #-92]
Ltmp108:
	bl	__ZNSt3__1lsB6v15006IcNS_11char_traitsIcEEEERNS_13basic_ostreamIT_T0_EES7_RKNS_8__iom_t6E
	str	x0, [sp, #184]                  ; 8-byte Folded Spill
Ltmp109:
	b	LBB25_17
LBB25_17:
	sub	x0, x29, #56
	mov	x1, #0
	bl	__ZNSt3__16vectorINS_12basic_stringIcNS_11char_traitsIcEENS_9allocatorIcEEEENS4_IS6_EEEixB6v15006Em
	mov	x1, x0
	ldr	x0, [sp, #184]                  ; 8-byte Folded Reload
Ltmp110:
	bl	__ZNSt3__1lsIcNS_11char_traitsIcEENS_9allocatorIcEEEERNS_13basic_ostreamIT_T0_EES9_RKNS_12basic_stringIS6_S7_T1_EE
	str	x0, [sp, #176]                  ; 8-byte Folded Spill
Ltmp111:
	b	LBB25_18
LBB25_18:
Ltmp112:
	ldr	x0, [sp, #176]                  ; 8-byte Folded Reload
	adrp	x1, l_.str.38@PAGE
	add	x1, x1, l_.str.38@PAGEOFF
	bl	__ZNSt3__1lsINS_11char_traitsIcEEEERNS_13basic_ostreamIcT_EES6_PKc
	str	x0, [sp, #168]                  ; 8-byte Folded Spill
Ltmp113:
	b	LBB25_19
LBB25_19:
Ltmp114:
	mov	w0, #48
	bl	__ZNSt3__17setfillB6v15006IcEENS_8__iom_t4IT_EES2_
	str	w0, [sp, #164]                  ; 4-byte Folded Spill
Ltmp115:
	b	LBB25_20
LBB25_20:
	ldr	x0, [sp, #168]                  ; 8-byte Folded Reload
	ldr	w8, [sp, #164]                  ; 4-byte Folded Reload
	sub	x1, x29, #93
	sturb	w8, [x29, #-93]
Ltmp116:
	bl	__ZNSt3__1lsB6v15006INS_11char_traitsIcEEEERNS_13basic_ostreamIcT_EES6_RKNS_8__iom_t4IcEE
	str	x0, [sp, #152]                  ; 8-byte Folded Spill
Ltmp117:
	b	LBB25_21
LBB25_21:
Ltmp118:
	mov	w0, #2
	bl	__ZNSt3__14setwB6v15006Ei
	str	w0, [sp, #148]                  ; 4-byte Folded Spill
Ltmp119:
	b	LBB25_22
LBB25_22:
	ldr	x0, [sp, #152]                  ; 8-byte Folded Reload
	ldr	w8, [sp, #148]                  ; 4-byte Folded Reload
	sub	x1, x29, #100
	stur	w8, [x29, #-100]
Ltmp120:
	bl	__ZNSt3__1lsB6v15006IcNS_11char_traitsIcEEEERNS_13basic_ostreamIT_T0_EES7_RKNS_8__iom_t6E
	str	x0, [sp, #136]                  ; 8-byte Folded Spill
Ltmp121:
	b	LBB25_23
LBB25_23:
	sub	x0, x29, #56
	mov	x1, #3
	bl	__ZNSt3__16vectorINS_12basic_stringIcNS_11char_traitsIcEENS_9allocatorIcEEEENS4_IS6_EEEixB6v15006Em
	mov	x1, x0
	ldr	x0, [sp, #136]                  ; 8-byte Folded Reload
Ltmp122:
	bl	__ZNSt3__1lsIcNS_11char_traitsIcEENS_9allocatorIcEEEERNS_13basic_ostreamIT_T0_EES9_RKNS_12basic_stringIS6_S7_T1_EE
	str	x0, [sp, #128]                  ; 8-byte Folded Spill
Ltmp123:
	b	LBB25_24
LBB25_24:
Ltmp124:
	ldr	x0, [sp, #128]                  ; 8-byte Folded Reload
	adrp	x1, l_.str.39@PAGE
	add	x1, x1, l_.str.39@PAGEOFF
	bl	__ZNSt3__1lsINS_11char_traitsIcEEEERNS_13basic_ostreamIcT_EES6_PKc
	str	x0, [sp, #120]                  ; 8-byte Folded Spill
Ltmp125:
	b	LBB25_25
LBB25_25:
Ltmp126:
	mov	w0, #48
	bl	__ZNSt3__17setfillB6v15006IcEENS_8__iom_t4IT_EES2_
	str	w0, [sp, #116]                  ; 4-byte Folded Spill
Ltmp127:
	b	LBB25_26
LBB25_26:
	ldr	x0, [sp, #120]                  ; 8-byte Folded Reload
	ldr	w8, [sp, #116]                  ; 4-byte Folded Reload
	sub	x1, x29, #101
	sturb	w8, [x29, #-101]
Ltmp128:
	bl	__ZNSt3__1lsB6v15006INS_11char_traitsIcEEEERNS_13basic_ostreamIcT_EES6_RKNS_8__iom_t4IcEE
	str	x0, [sp, #104]                  ; 8-byte Folded Spill
Ltmp129:
	b	LBB25_27
LBB25_27:
Ltmp130:
	mov	w0, #2
	bl	__ZNSt3__14setwB6v15006Ei
	str	w0, [sp, #100]                  ; 4-byte Folded Spill
Ltmp131:
	b	LBB25_28
LBB25_28:
	ldr	x0, [sp, #104]                  ; 8-byte Folded Reload
	ldr	w8, [sp, #100]                  ; 4-byte Folded Reload
	sub	x1, x29, #108
	stur	w8, [x29, #-108]
Ltmp132:
	bl	__ZNSt3__1lsB6v15006IcNS_11char_traitsIcEEEERNS_13basic_ostreamIT_T0_EES7_RKNS_8__iom_t6E
	str	x0, [sp, #88]                   ; 8-byte Folded Spill
Ltmp133:
	b	LBB25_29
LBB25_29:
	sub	x0, x29, #56
	mov	x1, #4
	bl	__ZNSt3__16vectorINS_12basic_stringIcNS_11char_traitsIcEENS_9allocatorIcEEEENS4_IS6_EEEixB6v15006Em
	mov	x1, x0
	ldr	x0, [sp, #88]                   ; 8-byte Folded Reload
Ltmp134:
	bl	__ZNSt3__1lsIcNS_11char_traitsIcEENS_9allocatorIcEEEERNS_13basic_ostreamIT_T0_EES9_RKNS_12basic_stringIS6_S7_T1_EE
	str	x0, [sp, #80]                   ; 8-byte Folded Spill
Ltmp135:
	b	LBB25_30
LBB25_30:
Ltmp136:
	ldr	x0, [sp, #80]                   ; 8-byte Folded Reload
	adrp	x1, l_.str.39@PAGE
	add	x1, x1, l_.str.39@PAGEOFF
	bl	__ZNSt3__1lsINS_11char_traitsIcEEEERNS_13basic_ostreamIcT_EES6_PKc
	str	x0, [sp, #72]                   ; 8-byte Folded Spill
Ltmp137:
	b	LBB25_31
LBB25_31:
Ltmp138:
	mov	w0, #48
	bl	__ZNSt3__17setfillB6v15006IcEENS_8__iom_t4IT_EES2_
	str	w0, [sp, #68]                   ; 4-byte Folded Spill
Ltmp139:
	b	LBB25_32
LBB25_32:
	ldr	x0, [sp, #72]                   ; 8-byte Folded Reload
	ldr	w8, [sp, #68]                   ; 4-byte Folded Reload
	sub	x1, x29, #109
	sturb	w8, [x29, #-109]
Ltmp140:
	bl	__ZNSt3__1lsB6v15006INS_11char_traitsIcEEEERNS_13basic_ostreamIcT_EES6_RKNS_8__iom_t4IcEE
	str	x0, [sp, #56]                   ; 8-byte Folded Spill
Ltmp141:
	b	LBB25_33
LBB25_33:
Ltmp142:
	mov	w0, #2
	bl	__ZNSt3__14setwB6v15006Ei
	str	w0, [sp, #52]                   ; 4-byte Folded Spill
Ltmp143:
	b	LBB25_34
LBB25_34:
	ldr	x0, [sp, #56]                   ; 8-byte Folded Reload
	ldr	w8, [sp, #52]                   ; 4-byte Folded Reload
	sub	x1, x29, #116
	stur	w8, [x29, #-116]
Ltmp144:
	bl	__ZNSt3__1lsB6v15006IcNS_11char_traitsIcEEEERNS_13basic_ostreamIT_T0_EES7_RKNS_8__iom_t6E
	str	x0, [sp, #40]                   ; 8-byte Folded Spill
Ltmp145:
	b	LBB25_35
LBB25_35:
	sub	x0, x29, #56
	mov	x1, #5
	bl	__ZNSt3__16vectorINS_12basic_stringIcNS_11char_traitsIcEENS_9allocatorIcEEEENS4_IS6_EEEixB6v15006Em
	mov	x1, x0
	ldr	x0, [sp, #40]                   ; 8-byte Folded Reload
Ltmp146:
	bl	__ZNSt3__1lsIcNS_11char_traitsIcEENS_9allocatorIcEEEERNS_13basic_ostreamIT_T0_EES9_RKNS_12basic_stringIS6_S7_T1_EE
	str	x0, [sp, #32]                   ; 8-byte Folded Spill
Ltmp147:
	b	LBB25_36
LBB25_36:
Ltmp148:
	ldr	x0, [sp, #32]                   ; 8-byte Folded Reload
	adrp	x1, l_.str.40@PAGE
	add	x1, x1, l_.str.40@PAGEOFF
	bl	__ZNSt3__1lsINS_11char_traitsIcEEEERNS_13basic_ostreamIcT_EES6_PKc
	str	x0, [sp, #24]                   ; 8-byte Folded Spill
Ltmp149:
	b	LBB25_37
LBB25_37:
Ltmp150:
	ldur	x1, [x29, #-152]                ; 8-byte Folded Reload
	ldr	x0, [sp, #24]                   ; 8-byte Folded Reload
	bl	__ZNSt3__1lsIcNS_11char_traitsIcEENS_9allocatorIcEEEERNS_13basic_ostreamIT_T0_EES9_RKNS_12basic_stringIS6_S7_T1_EE
	str	x0, [sp, #16]                   ; 8-byte Folded Spill
Ltmp151:
	b	LBB25_38
LBB25_38:
Ltmp152:
	ldr	x0, [sp, #16]                   ; 8-byte Folded Reload
	adrp	x1, l_.str.41@PAGE
	add	x1, x1, l_.str.41@PAGEOFF
	bl	__ZNSt3__1lsINS_11char_traitsIcEEEERNS_13basic_ostreamIcT_EES6_PKc
	str	x0, [sp, #8]                    ; 8-byte Folded Spill
Ltmp153:
	b	LBB25_39
LBB25_39:
Ltmp154:
	ldur	x1, [x29, #-144]                ; 8-byte Folded Reload
	ldr	x0, [sp, #8]                    ; 8-byte Folded Reload
	bl	__ZNSt3__1lsIcNS_11char_traitsIcEENS_9allocatorIcEEEERNS_13basic_ostreamIT_T0_EES9_RKNS_12basic_stringIS6_S7_T1_EE
	str	x0, [sp]                        ; 8-byte Folded Spill
Ltmp155:
	b	LBB25_40
LBB25_40:
Ltmp156:
	ldur	x1, [x29, #-136]                ; 8-byte Folded Reload
	ldr	x0, [sp]                        ; 8-byte Folded Reload
	bl	__ZNSt3__113basic_ostreamIcNS_11char_traitsIcEEElsB6v15006EPFRS3_S4_E
Ltmp157:
	b	LBB25_41
LBB25_41:
	sub	x0, x29, #56
	bl	__ZNSt3__16vectorINS_12basic_stringIcNS_11char_traitsIcEENS_9allocatorIcEEEENS4_IS6_EEED1B6v15006Ev
	ldp	x29, x30, [sp, #464]            ; 16-byte Folded Reload
	ldp	x28, x27, [sp, #448]            ; 16-byte Folded Reload
	add	sp, sp, #480
	retab
LBB25_42:
Ltmp158:
	mov	x8, x1
	stur	x0, [x29, #-64]
	stur	w8, [x29, #-68]
	sub	x0, x29, #56
	bl	__ZNSt3__16vectorINS_12basic_stringIcNS_11char_traitsIcEENS_9allocatorIcEEEENS4_IS6_EEED1B6v15006Ev
	b	LBB25_43
LBB25_43:
	ldur	x0, [x29, #-64]
	bl	__Unwind_Resume
Lfunc_end2:
	.cfi_endproc
	.section	__TEXT,__gcc_except_tab
	.p2align	2
GCC_except_table25:
Lexception2:
	.byte	255                             ; @LPStart Encoding = omit
	.byte	255                             ; @TType Encoding = omit
	.byte	1                               ; Call site Encoding = uleb128
	.uleb128 Lcst_end2-Lcst_begin2
Lcst_begin2:
	.uleb128 Lfunc_begin2-Lfunc_begin2      ; >> Call Site 1 <<
	.uleb128 Ltmp76-Lfunc_begin2            ;   Call between Lfunc_begin2 and Ltmp76
	.byte	0                               ;     has no landing pad
	.byte	0                               ;   On action: cleanup
	.uleb128 Ltmp76-Lfunc_begin2            ; >> Call Site 2 <<
	.uleb128 Ltmp157-Ltmp76                 ;   Call between Ltmp76 and Ltmp157
	.uleb128 Ltmp158-Lfunc_begin2           ;     jumps to Ltmp158
	.byte	0                               ;   On action: cleanup
	.uleb128 Ltmp157-Lfunc_begin2           ; >> Call Site 3 <<
	.uleb128 Lfunc_end2-Ltmp157             ;   Call between Ltmp157 and Lfunc_end2
	.byte	0                               ;     has no landing pad
	.byte	0                               ;   On action: cleanup
Lcst_end2:
	.p2align	2
                                        ; -- End function
	.section	__TEXT,__text,regular,pure_instructions
	.globl	__ZNSt3__1lsIcNS_11char_traitsIcEENS_9allocatorIcEEEERNS_13basic_ostreamIT_T0_EES9_RKNS_12basic_stringIS6_S7_T1_EE ; -- Begin function _ZNSt3__1lsIcNS_11char_traitsIcEENS_9allocatorIcEEEERNS_13basic_ostreamIT_T0_EES9_RKNS_12basic_stringIS6_S7_T1_EE
	.weak_definition	__ZNSt3__1lsIcNS_11char_traitsIcEENS_9allocatorIcEEEERNS_13basic_ostreamIT_T0_EES9_RKNS_12basic_stringIS6_S7_T1_EE
	.p2align	2
__ZNSt3__1lsIcNS_11char_traitsIcEENS_9allocatorIcEEEERNS_13basic_ostreamIT_T0_EES9_RKNS_12basic_stringIS6_S7_T1_EE: ; @_ZNSt3__1lsIcNS_11char_traitsIcEENS_9allocatorIcEEEERNS_13basic_ostreamIT_T0_EES9_RKNS_12basic_stringIS6_S7_T1_EE
	.cfi_startproc
; %bb.0:
	pacibsp
	sub	sp, sp, #48
	.cfi_def_cfa_offset 48
	stp	x29, x30, [sp, #32]             ; 16-byte Folded Spill
	add	x29, sp, #32
	.cfi_def_cfa w29, 16
	.cfi_offset w30, -8
	.cfi_offset w29, -16
	stur	x0, [x29, #-8]
	str	x1, [sp, #16]
	ldur	x8, [x29, #-8]
	str	x8, [sp, #8]                    ; 8-byte Folded Spill
	ldr	x0, [sp, #16]
	bl	__ZNKSt3__112basic_stringIcNS_11char_traitsIcEENS_9allocatorIcEEE4dataB6v15006Ev
	str	x0, [sp]                        ; 8-byte Folded Spill
	ldr	x0, [sp, #16]
	bl	__ZNKSt3__112basic_stringIcNS_11char_traitsIcEENS_9allocatorIcEEE4sizeB6v15006Ev
	ldr	x1, [sp]                        ; 8-byte Folded Reload
	mov	x2, x0
	ldr	x0, [sp, #8]                    ; 8-byte Folded Reload
	bl	__ZNSt3__124__put_character_sequenceIcNS_11char_traitsIcEEEERNS_13basic_ostreamIT_T0_EES7_PKS4_m
	ldp	x29, x30, [sp, #32]             ; 16-byte Folded Reload
	add	sp, sp, #48
	retab
	.cfi_endproc
                                        ; -- End function
	.globl	__ZNSt3__1lsINS_11char_traitsIcEEEERNS_13basic_ostreamIcT_EES6_PKc ; -- Begin function _ZNSt3__1lsINS_11char_traitsIcEEEERNS_13basic_ostreamIcT_EES6_PKc
	.weak_definition	__ZNSt3__1lsINS_11char_traitsIcEEEERNS_13basic_ostreamIcT_EES6_PKc
	.p2align	2
__ZNSt3__1lsINS_11char_traitsIcEEEERNS_13basic_ostreamIcT_EES6_PKc: ; @_ZNSt3__1lsINS_11char_traitsIcEEEERNS_13basic_ostreamIcT_EES6_PKc
	.cfi_startproc
; %bb.0:
	pacibsp
	sub	sp, sp, #48
	.cfi_def_cfa_offset 48
	stp	x29, x30, [sp, #32]             ; 16-byte Folded Spill
	add	x29, sp, #32
	.cfi_def_cfa w29, 16
	.cfi_offset w30, -8
	.cfi_offset w29, -16
	stur	x0, [x29, #-8]
	str	x1, [sp, #16]
	ldur	x8, [x29, #-8]
	str	x8, [sp, #8]                    ; 8-byte Folded Spill
	ldr	x8, [sp, #16]
	str	x8, [sp]                        ; 8-byte Folded Spill
	ldr	x0, [sp, #16]
	bl	__ZNSt3__111char_traitsIcE6lengthEPKc
	ldr	x1, [sp]                        ; 8-byte Folded Reload
	mov	x2, x0
	ldr	x0, [sp, #8]                    ; 8-byte Folded Reload
	bl	__ZNSt3__124__put_character_sequenceIcNS_11char_traitsIcEEEERNS_13basic_ostreamIT_T0_EES7_PKS4_m
	ldp	x29, x30, [sp, #32]             ; 16-byte Folded Reload
	add	sp, sp, #48
	retab
	.cfi_endproc
                                        ; -- End function
	.private_extern	__ZNSt3__1lsB6v15006IcNS_11char_traitsIcEEEERNS_13basic_ostreamIT_T0_EES7_RKNS_8__iom_t6E ; -- Begin function _ZNSt3__1lsB6v15006IcNS_11char_traitsIcEEEERNS_13basic_ostreamIT_T0_EES7_RKNS_8__iom_t6E
	.globl	__ZNSt3__1lsB6v15006IcNS_11char_traitsIcEEEERNS_13basic_ostreamIT_T0_EES7_RKNS_8__iom_t6E
	.weak_definition	__ZNSt3__1lsB6v15006IcNS_11char_traitsIcEEEERNS_13basic_ostreamIT_T0_EES7_RKNS_8__iom_t6E
	.p2align	2
__ZNSt3__1lsB6v15006IcNS_11char_traitsIcEEEERNS_13basic_ostreamIT_T0_EES7_RKNS_8__iom_t6E: ; @_ZNSt3__1lsB6v15006IcNS_11char_traitsIcEEEERNS_13basic_ostreamIT_T0_EES7_RKNS_8__iom_t6E
	.cfi_startproc
; %bb.0:
	pacibsp
	sub	sp, sp, #32
	.cfi_def_cfa_offset 32
	stp	x29, x30, [sp, #16]             ; 16-byte Folded Spill
	add	x29, sp, #16
	.cfi_def_cfa w29, 16
	.cfi_offset w30, -8
	.cfi_offset w29, -16
	str	x0, [sp, #8]
	str	x1, [sp]
	ldr	x8, [sp, #8]
	ldr	x16, [x8]
	mov	x9, x8
	mov	x17, x9
	movk	x17, #53388, lsl #48
	autda	x16, x17
	ldur	x9, [x16, #-24]
	ldr	x10, [sp]
	ldrsw	x1, [x10]
	add	x0, x8, x9
	bl	__ZNSt3__18ios_base5widthB6v15006El
	ldr	x0, [sp, #8]
	ldp	x29, x30, [sp, #16]             ; 16-byte Folded Reload
	add	sp, sp, #32
	retab
	.cfi_endproc
                                        ; -- End function
	.globl	__ZNSt3__1lsB6v15006INS_11char_traitsIcEEEERNS_13basic_ostreamIcT_EES6_RKNS_8__iom_t4IcEE ; -- Begin function _ZNSt3__1lsB6v15006INS_11char_traitsIcEEEERNS_13basic_ostreamIcT_EES6_RKNS_8__iom_t4IcEE
	.weak_definition	__ZNSt3__1lsB6v15006INS_11char_traitsIcEEEERNS_13basic_ostreamIcT_EES6_RKNS_8__iom_t4IcEE
	.p2align	2
__ZNSt3__1lsB6v15006INS_11char_traitsIcEEEERNS_13basic_ostreamIcT_EES6_RKNS_8__iom_t4IcEE: ; @_ZNSt3__1lsB6v15006INS_11char_traitsIcEEEERNS_13basic_ostreamIcT_EES6_RKNS_8__iom_t4IcEE
	.cfi_startproc
; %bb.0:
	pacibsp
	sub	sp, sp, #32
	.cfi_def_cfa_offset 32
	stp	x29, x30, [sp, #16]             ; 16-byte Folded Spill
	add	x29, sp, #16
	.cfi_def_cfa w29, 16
	.cfi_offset w30, -8
	.cfi_offset w29, -16
	str	x0, [sp, #8]
	str	x1, [sp]
	ldr	x8, [sp, #8]
	ldr	x16, [x8]
	mov	x9, x8
	mov	x17, x9
	movk	x17, #53388, lsl #48
	autda	x16, x17
	ldur	x9, [x16, #-24]
	ldr	x10, [sp]
	ldrsb	w1, [x10]
	add	x0, x8, x9
	bl	__ZNSt3__19basic_iosIcNS_11char_traitsIcEEE4fillB6v15006Ec
	ldr	x0, [sp, #8]
	ldp	x29, x30, [sp, #16]             ; 16-byte Folded Reload
	add	sp, sp, #32
	retab
	.cfi_endproc
                                        ; -- End function
	.private_extern	__ZNSt3__17setfillB6v15006IcEENS_8__iom_t4IT_EES2_ ; -- Begin function _ZNSt3__17setfillB6v15006IcEENS_8__iom_t4IT_EES2_
	.globl	__ZNSt3__17setfillB6v15006IcEENS_8__iom_t4IT_EES2_
	.weak_definition	__ZNSt3__17setfillB6v15006IcEENS_8__iom_t4IT_EES2_
	.p2align	2
__ZNSt3__17setfillB6v15006IcEENS_8__iom_t4IT_EES2_: ; @_ZNSt3__17setfillB6v15006IcEENS_8__iom_t4IT_EES2_
	.cfi_startproc
; %bb.0:
	pacibsp
	sub	sp, sp, #32
	.cfi_def_cfa_offset 32
	stp	x29, x30, [sp, #16]             ; 16-byte Folded Spill
	add	x29, sp, #16
	.cfi_def_cfa w29, 16
	.cfi_offset w30, -8
	.cfi_offset w29, -16
	sturb	w0, [x29, #-2]
	ldursb	w1, [x29, #-2]
	sub	x0, x29, #1
	bl	__ZNSt3__18__iom_t4IcEC1B6v15006Ec
	ldurb	w0, [x29, #-1]
	ldp	x29, x30, [sp, #16]             ; 16-byte Folded Reload
	add	sp, sp, #32
	retab
	.cfi_endproc
                                        ; -- End function
	.private_extern	__ZNSt3__14setwB6v15006Ei ; -- Begin function _ZNSt3__14setwB6v15006Ei
	.globl	__ZNSt3__14setwB6v15006Ei
	.weak_definition	__ZNSt3__14setwB6v15006Ei
	.p2align	2
__ZNSt3__14setwB6v15006Ei:              ; @_ZNSt3__14setwB6v15006Ei
	.cfi_startproc
; %bb.0:
	pacibsp
	sub	sp, sp, #32
	.cfi_def_cfa_offset 32
	stp	x29, x30, [sp, #16]             ; 16-byte Folded Spill
	add	x29, sp, #16
	.cfi_def_cfa w29, 16
	.cfi_offset w30, -8
	.cfi_offset w29, -16
	str	w0, [sp, #8]
	ldr	w1, [sp, #8]
	sub	x0, x29, #4
	bl	__ZNSt3__18__iom_t6C1B6v15006Ei
	ldur	w0, [x29, #-4]
	ldp	x29, x30, [sp, #16]             ; 16-byte Folded Reload
	add	sp, sp, #32
	retab
	.cfi_endproc
                                        ; -- End function
	.private_extern	__ZNSt3__16vectorINS_12basic_stringIcNS_11char_traitsIcEENS_9allocatorIcEEEENS4_IS6_EEEixB6v15006Em ; -- Begin function _ZNSt3__16vectorINS_12basic_stringIcNS_11char_traitsIcEENS_9allocatorIcEEEENS4_IS6_EEEixB6v15006Em
	.globl	__ZNSt3__16vectorINS_12basic_stringIcNS_11char_traitsIcEENS_9allocatorIcEEEENS4_IS6_EEEixB6v15006Em
	.weak_definition	__ZNSt3__16vectorINS_12basic_stringIcNS_11char_traitsIcEENS_9allocatorIcEEEENS4_IS6_EEEixB6v15006Em
	.p2align	2
__ZNSt3__16vectorINS_12basic_stringIcNS_11char_traitsIcEENS_9allocatorIcEEEENS4_IS6_EEEixB6v15006Em: ; @_ZNSt3__16vectorINS_12basic_stringIcNS_11char_traitsIcEENS_9allocatorIcEEEENS4_IS6_EEEixB6v15006Em
	.cfi_startproc
; %bb.0:
	sub	sp, sp, #16
	.cfi_def_cfa_offset 16
	str	x0, [sp, #8]
	str	x1, [sp]
	ldr	x8, [sp, #8]
	ldr	x8, [x8]
	ldr	x9, [sp]
	mov	x10, #24
	mul	x9, x9, x10
	add	x0, x8, x9
	add	sp, sp, #16
	ret
	.cfi_endproc
                                        ; -- End function
	.private_extern	__ZNSt3__113basic_ostreamIcNS_11char_traitsIcEEElsB6v15006EPFRS3_S4_E ; -- Begin function _ZNSt3__113basic_ostreamIcNS_11char_traitsIcEEElsB6v15006EPFRS3_S4_E
	.globl	__ZNSt3__113basic_ostreamIcNS_11char_traitsIcEEElsB6v15006EPFRS3_S4_E
	.weak_definition	__ZNSt3__113basic_ostreamIcNS_11char_traitsIcEEElsB6v15006EPFRS3_S4_E
	.p2align	2
__ZNSt3__113basic_ostreamIcNS_11char_traitsIcEEElsB6v15006EPFRS3_S4_E: ; @_ZNSt3__113basic_ostreamIcNS_11char_traitsIcEEElsB6v15006EPFRS3_S4_E
	.cfi_startproc
; %bb.0:
	pacibsp
	sub	sp, sp, #32
	.cfi_def_cfa_offset 32
	stp	x29, x30, [sp, #16]             ; 16-byte Folded Spill
	add	x29, sp, #16
	.cfi_def_cfa w29, 16
	.cfi_offset w30, -8
	.cfi_offset w29, -16
	str	x0, [sp, #8]
	str	x1, [sp]
	ldr	x0, [sp, #8]
	ldr	x8, [sp]
	blraaz	x8
	ldp	x29, x30, [sp, #16]             ; 16-byte Folded Reload
	add	sp, sp, #32
	retab
	.cfi_endproc
                                        ; -- End function
	.globl	__ZNSt3__14endlIcNS_11char_traitsIcEEEERNS_13basic_ostreamIT_T0_EES7_ ; -- Begin function _ZNSt3__14endlIcNS_11char_traitsIcEEEERNS_13basic_ostreamIT_T0_EES7_
	.weak_definition	__ZNSt3__14endlIcNS_11char_traitsIcEEEERNS_13basic_ostreamIT_T0_EES7_
	.p2align	2
__ZNSt3__14endlIcNS_11char_traitsIcEEEERNS_13basic_ostreamIT_T0_EES7_: ; @_ZNSt3__14endlIcNS_11char_traitsIcEEEERNS_13basic_ostreamIT_T0_EES7_
	.cfi_startproc
; %bb.0:
	pacibsp
	sub	sp, sp, #32
	.cfi_def_cfa_offset 32
	stp	x29, x30, [sp, #16]             ; 16-byte Folded Spill
	add	x29, sp, #16
	.cfi_def_cfa w29, 16
	.cfi_offset w30, -8
	.cfi_offset w29, -16
	str	x0, [sp, #8]
	ldr	x8, [sp, #8]
	str	x8, [sp]                        ; 8-byte Folded Spill
	ldr	x8, [sp, #8]
	ldr	x16, [x8]
	mov	x9, x8
	mov	x17, x9
	movk	x17, #53388, lsl #48
	autda	x16, x17
	ldur	x9, [x16, #-24]
	add	x0, x8, x9
	mov	w1, #10
	bl	__ZNKSt3__19basic_iosIcNS_11char_traitsIcEEE5widenB6v15006Ec
	mov	x8, x0
	ldr	x0, [sp]                        ; 8-byte Folded Reload
	sxtb	w1, w8
	bl	__ZNSt3__113basic_ostreamIcNS_11char_traitsIcEEE3putEc
	ldr	x0, [sp, #8]
	bl	__ZNSt3__113basic_ostreamIcNS_11char_traitsIcEEE5flushEv
	ldr	x0, [sp, #8]
	ldp	x29, x30, [sp, #16]             ; 16-byte Folded Reload
	add	sp, sp, #32
	retab
	.cfi_endproc
                                        ; -- End function
	.globl	__ZN11SnakeSenzia7Logging15printLogWStringENSt3__112basic_stringIwNS1_11char_traitsIwEENS1_9allocatorIwEEEES7_PNS_5TimerE ; -- Begin function _ZN11SnakeSenzia7Logging15printLogWStringENSt3__112basic_stringIwNS1_11char_traitsIwEENS1_9allocatorIwEEEES7_PNS_5TimerE
	.p2align	2
__ZN11SnakeSenzia7Logging15printLogWStringENSt3__112basic_stringIwNS1_11char_traitsIwEENS1_9allocatorIwEEEES7_PNS_5TimerE: ; @_ZN11SnakeSenzia7Logging15printLogWStringENSt3__112basic_stringIwNS1_11char_traitsIwEENS1_9allocatorIwEEEES7_PNS_5TimerE
Lfunc_begin3:
	.cfi_startproc
	.cfi_personality 155, ___gxx_personality_v0
	.cfi_lsda 16, Lexception3
; %bb.0:
	pacibsp
	sub	sp, sp, #480
	.cfi_def_cfa_offset 480
	stp	x28, x27, [sp, #448]            ; 16-byte Folded Spill
	stp	x29, x30, [sp, #464]            ; 16-byte Folded Spill
	add	x29, sp, #464
	.cfi_def_cfa w29, 16
	.cfi_offset w30, -8
	.cfi_offset w29, -16
	.cfi_offset w27, -24
	.cfi_offset w28, -32
	stur	x1, [x29, #-152]                ; 8-byte Folded Spill
	stur	x2, [x29, #-144]                ; 8-byte Folded Spill
                                        ; implicit-def: $x16
                                        ; implicit-def: $x17
	adrp	x16, __ZNSt3__14endlIwNS_11char_traitsIwEEEERNS_13basic_ostreamIT_T0_EES7_@GOTPAGE
	ldr	x16, [x16, __ZNSt3__14endlIwNS_11char_traitsIwEEEERNS_13basic_ostreamIT_T0_EES7_@GOTPAGEOFF]
	paciza	x16
	stur	x16, [x29, #-136]               ; 8-byte Folded Spill
	stur	x0, [x29, #-24]
	stur	x3, [x29, #-32]
	ldur	x0, [x29, #-32]
	sub	x8, x29, #56
	bl	__ZN11SnakeSenzia5Timer25GetCurrentDateTimeWStringEv
Ltmp160:
	adrp	x0, __ZNSt3__15wcoutE@GOTPAGE
	ldr	x0, [x0, __ZNSt3__15wcoutE@GOTPAGEOFF]
	adrp	x1, l_.str.36@PAGE
	add	x1, x1, l_.str.36@PAGEOFF
	bl	__ZNSt3__1lsIwNS_11char_traitsIwEEEERNS_13basic_ostreamIT_T0_EES7_PKc
	stur	x0, [x29, #-128]                ; 8-byte Folded Spill
Ltmp161:
	b	LBB35_1
LBB35_1:
Ltmp162:
	mov	w0, #48
	bl	__ZNSt3__17setfillB6v15006IwEENS_8__iom_t4IT_EES2_
	stur	w0, [x29, #-156]                ; 4-byte Folded Spill
Ltmp163:
	b	LBB35_2
LBB35_2:
	ldur	x0, [x29, #-128]                ; 8-byte Folded Reload
	ldur	w8, [x29, #-156]                ; 4-byte Folded Reload
	sub	x1, x29, #72
	stur	w8, [x29, #-72]
Ltmp164:
	bl	__ZNSt3__1lsB6v15006INS_11char_traitsIwEEEERNS_13basic_ostreamIwT_EES6_RKNS_8__iom_t4IwEE
	stur	x0, [x29, #-168]                ; 8-byte Folded Spill
Ltmp165:
	b	LBB35_3
LBB35_3:
Ltmp166:
	mov	w0, #4
	bl	__ZNSt3__14setwB6v15006Ei
	stur	w0, [x29, #-172]                ; 4-byte Folded Spill
Ltmp167:
	b	LBB35_4
LBB35_4:
	ldur	x0, [x29, #-168]                ; 8-byte Folded Reload
	ldur	w8, [x29, #-172]                ; 4-byte Folded Reload
	sub	x1, x29, #76
	stur	w8, [x29, #-76]
Ltmp168:
	bl	__ZNSt3__1lsB6v15006IwNS_11char_traitsIwEEEERNS_13basic_ostreamIT_T0_EES7_RKNS_8__iom_t6E
	stur	x0, [x29, #-184]                ; 8-byte Folded Spill
Ltmp169:
	b	LBB35_5
LBB35_5:
	sub	x0, x29, #56
	mov	x1, #2
	bl	__ZNSt3__16vectorINS_12basic_stringIwNS_11char_traitsIwEENS_9allocatorIwEEEENS4_IS6_EEEixB6v15006Em
	mov	x1, x0
	ldur	x0, [x29, #-184]                ; 8-byte Folded Reload
Ltmp170:
	bl	__ZNSt3__1lsIwNS_11char_traitsIwEENS_9allocatorIwEEEERNS_13basic_ostreamIT_T0_EES9_RKNS_12basic_stringIS6_S7_T1_EE
	stur	x0, [x29, #-192]                ; 8-byte Folded Spill
Ltmp171:
	b	LBB35_6
LBB35_6:
Ltmp172:
	ldur	x0, [x29, #-192]                ; 8-byte Folded Reload
	adrp	x1, l_.str.37@PAGE
	add	x1, x1, l_.str.37@PAGEOFF
	bl	__ZNSt3__1lsIwNS_11char_traitsIwEEEERNS_13basic_ostreamIT_T0_EES7_PKc
	stur	x0, [x29, #-200]                ; 8-byte Folded Spill
Ltmp173:
	b	LBB35_7
LBB35_7:
Ltmp174:
	mov	w0, #48
	bl	__ZNSt3__17setfillB6v15006IwEENS_8__iom_t4IT_EES2_
	stur	w0, [x29, #-204]                ; 4-byte Folded Spill
Ltmp175:
	b	LBB35_8
LBB35_8:
	ldur	x0, [x29, #-200]                ; 8-byte Folded Reload
	ldur	w8, [x29, #-204]                ; 4-byte Folded Reload
	sub	x1, x29, #80
	stur	w8, [x29, #-80]
Ltmp176:
	bl	__ZNSt3__1lsB6v15006INS_11char_traitsIwEEEERNS_13basic_ostreamIwT_EES6_RKNS_8__iom_t4IwEE
	stur	x0, [x29, #-216]                ; 8-byte Folded Spill
Ltmp177:
	b	LBB35_9
LBB35_9:
Ltmp178:
	mov	w0, #2
	bl	__ZNSt3__14setwB6v15006Ei
	stur	w0, [x29, #-220]                ; 4-byte Folded Spill
Ltmp179:
	b	LBB35_10
LBB35_10:
	ldur	x0, [x29, #-216]                ; 8-byte Folded Reload
	ldur	w8, [x29, #-220]                ; 4-byte Folded Reload
	sub	x1, x29, #84
	stur	w8, [x29, #-84]
Ltmp180:
	bl	__ZNSt3__1lsB6v15006IwNS_11char_traitsIwEEEERNS_13basic_ostreamIT_T0_EES7_RKNS_8__iom_t6E
	str	x0, [sp, #232]                  ; 8-byte Folded Spill
Ltmp181:
	b	LBB35_11
LBB35_11:
	sub	x0, x29, #56
	mov	x1, #1
	bl	__ZNSt3__16vectorINS_12basic_stringIwNS_11char_traitsIwEENS_9allocatorIwEEEENS4_IS6_EEEixB6v15006Em
	mov	x1, x0
	ldr	x0, [sp, #232]                  ; 8-byte Folded Reload
Ltmp182:
	bl	__ZNSt3__1lsIwNS_11char_traitsIwEENS_9allocatorIwEEEERNS_13basic_ostreamIT_T0_EES9_RKNS_12basic_stringIS6_S7_T1_EE
	str	x0, [sp, #224]                  ; 8-byte Folded Spill
Ltmp183:
	b	LBB35_12
LBB35_12:
Ltmp184:
	ldr	x0, [sp, #224]                  ; 8-byte Folded Reload
	adrp	x1, l_.str.37@PAGE
	add	x1, x1, l_.str.37@PAGEOFF
	bl	__ZNSt3__1lsIwNS_11char_traitsIwEEEERNS_13basic_ostreamIT_T0_EES7_PKc
	str	x0, [sp, #216]                  ; 8-byte Folded Spill
Ltmp185:
	b	LBB35_13
LBB35_13:
Ltmp186:
	mov	w0, #48
	bl	__ZNSt3__17setfillB6v15006IwEENS_8__iom_t4IT_EES2_
	str	w0, [sp, #212]                  ; 4-byte Folded Spill
Ltmp187:
	b	LBB35_14
LBB35_14:
	ldr	x0, [sp, #216]                  ; 8-byte Folded Reload
	ldr	w8, [sp, #212]                  ; 4-byte Folded Reload
	sub	x1, x29, #88
	stur	w8, [x29, #-88]
Ltmp188:
	bl	__ZNSt3__1lsB6v15006INS_11char_traitsIwEEEERNS_13basic_ostreamIwT_EES6_RKNS_8__iom_t4IwEE
	str	x0, [sp, #200]                  ; 8-byte Folded Spill
Ltmp189:
	b	LBB35_15
LBB35_15:
Ltmp190:
	mov	w0, #2
	bl	__ZNSt3__14setwB6v15006Ei
	str	w0, [sp, #196]                  ; 4-byte Folded Spill
Ltmp191:
	b	LBB35_16
LBB35_16:
	ldr	x0, [sp, #200]                  ; 8-byte Folded Reload
	ldr	w8, [sp, #196]                  ; 4-byte Folded Reload
	sub	x1, x29, #92
	stur	w8, [x29, #-92]
Ltmp192:
	bl	__ZNSt3__1lsB6v15006IwNS_11char_traitsIwEEEERNS_13basic_ostreamIT_T0_EES7_RKNS_8__iom_t6E
	str	x0, [sp, #184]                  ; 8-byte Folded Spill
Ltmp193:
	b	LBB35_17
LBB35_17:
	sub	x0, x29, #56
	mov	x1, #0
	bl	__ZNSt3__16vectorINS_12basic_stringIwNS_11char_traitsIwEENS_9allocatorIwEEEENS4_IS6_EEEixB6v15006Em
	mov	x1, x0
	ldr	x0, [sp, #184]                  ; 8-byte Folded Reload
Ltmp194:
	bl	__ZNSt3__1lsIwNS_11char_traitsIwEENS_9allocatorIwEEEERNS_13basic_ostreamIT_T0_EES9_RKNS_12basic_stringIS6_S7_T1_EE
	str	x0, [sp, #176]                  ; 8-byte Folded Spill
Ltmp195:
	b	LBB35_18
LBB35_18:
Ltmp196:
	ldr	x0, [sp, #176]                  ; 8-byte Folded Reload
	adrp	x1, l_.str.38@PAGE
	add	x1, x1, l_.str.38@PAGEOFF
	bl	__ZNSt3__1lsIwNS_11char_traitsIwEEEERNS_13basic_ostreamIT_T0_EES7_PKc
	str	x0, [sp, #168]                  ; 8-byte Folded Spill
Ltmp197:
	b	LBB35_19
LBB35_19:
Ltmp198:
	mov	w0, #48
	bl	__ZNSt3__17setfillB6v15006IwEENS_8__iom_t4IT_EES2_
	str	w0, [sp, #164]                  ; 4-byte Folded Spill
Ltmp199:
	b	LBB35_20
LBB35_20:
	ldr	x0, [sp, #168]                  ; 8-byte Folded Reload
	ldr	w8, [sp, #164]                  ; 4-byte Folded Reload
	sub	x1, x29, #96
	stur	w8, [x29, #-96]
Ltmp200:
	bl	__ZNSt3__1lsB6v15006INS_11char_traitsIwEEEERNS_13basic_ostreamIwT_EES6_RKNS_8__iom_t4IwEE
	str	x0, [sp, #152]                  ; 8-byte Folded Spill
Ltmp201:
	b	LBB35_21
LBB35_21:
Ltmp202:
	mov	w0, #2
	bl	__ZNSt3__14setwB6v15006Ei
	str	w0, [sp, #148]                  ; 4-byte Folded Spill
Ltmp203:
	b	LBB35_22
LBB35_22:
	ldr	x0, [sp, #152]                  ; 8-byte Folded Reload
	ldr	w8, [sp, #148]                  ; 4-byte Folded Reload
	sub	x1, x29, #100
	stur	w8, [x29, #-100]
Ltmp204:
	bl	__ZNSt3__1lsB6v15006IwNS_11char_traitsIwEEEERNS_13basic_ostreamIT_T0_EES7_RKNS_8__iom_t6E
	str	x0, [sp, #136]                  ; 8-byte Folded Spill
Ltmp205:
	b	LBB35_23
LBB35_23:
	sub	x0, x29, #56
	mov	x1, #3
	bl	__ZNSt3__16vectorINS_12basic_stringIwNS_11char_traitsIwEENS_9allocatorIwEEEENS4_IS6_EEEixB6v15006Em
	mov	x1, x0
	ldr	x0, [sp, #136]                  ; 8-byte Folded Reload
Ltmp206:
	bl	__ZNSt3__1lsIwNS_11char_traitsIwEENS_9allocatorIwEEEERNS_13basic_ostreamIT_T0_EES9_RKNS_12basic_stringIS6_S7_T1_EE
	str	x0, [sp, #128]                  ; 8-byte Folded Spill
Ltmp207:
	b	LBB35_24
LBB35_24:
Ltmp208:
	ldr	x0, [sp, #128]                  ; 8-byte Folded Reload
	adrp	x1, l_.str.39@PAGE
	add	x1, x1, l_.str.39@PAGEOFF
	bl	__ZNSt3__1lsIwNS_11char_traitsIwEEEERNS_13basic_ostreamIT_T0_EES7_PKc
	str	x0, [sp, #120]                  ; 8-byte Folded Spill
Ltmp209:
	b	LBB35_25
LBB35_25:
Ltmp210:
	mov	w0, #48
	bl	__ZNSt3__17setfillB6v15006IwEENS_8__iom_t4IT_EES2_
	str	w0, [sp, #116]                  ; 4-byte Folded Spill
Ltmp211:
	b	LBB35_26
LBB35_26:
	ldr	x0, [sp, #120]                  ; 8-byte Folded Reload
	ldr	w8, [sp, #116]                  ; 4-byte Folded Reload
	sub	x1, x29, #104
	stur	w8, [x29, #-104]
Ltmp212:
	bl	__ZNSt3__1lsB6v15006INS_11char_traitsIwEEEERNS_13basic_ostreamIwT_EES6_RKNS_8__iom_t4IwEE
	str	x0, [sp, #104]                  ; 8-byte Folded Spill
Ltmp213:
	b	LBB35_27
LBB35_27:
Ltmp214:
	mov	w0, #2
	bl	__ZNSt3__14setwB6v15006Ei
	str	w0, [sp, #100]                  ; 4-byte Folded Spill
Ltmp215:
	b	LBB35_28
LBB35_28:
	ldr	x0, [sp, #104]                  ; 8-byte Folded Reload
	ldr	w8, [sp, #100]                  ; 4-byte Folded Reload
	sub	x1, x29, #108
	stur	w8, [x29, #-108]
Ltmp216:
	bl	__ZNSt3__1lsB6v15006IwNS_11char_traitsIwEEEERNS_13basic_ostreamIT_T0_EES7_RKNS_8__iom_t6E
	str	x0, [sp, #88]                   ; 8-byte Folded Spill
Ltmp217:
	b	LBB35_29
LBB35_29:
	sub	x0, x29, #56
	mov	x1, #4
	bl	__ZNSt3__16vectorINS_12basic_stringIwNS_11char_traitsIwEENS_9allocatorIwEEEENS4_IS6_EEEixB6v15006Em
	mov	x1, x0
	ldr	x0, [sp, #88]                   ; 8-byte Folded Reload
Ltmp218:
	bl	__ZNSt3__1lsIwNS_11char_traitsIwEENS_9allocatorIwEEEERNS_13basic_ostreamIT_T0_EES9_RKNS_12basic_stringIS6_S7_T1_EE
	str	x0, [sp, #80]                   ; 8-byte Folded Spill
Ltmp219:
	b	LBB35_30
LBB35_30:
Ltmp220:
	ldr	x0, [sp, #80]                   ; 8-byte Folded Reload
	adrp	x1, l_.str.39@PAGE
	add	x1, x1, l_.str.39@PAGEOFF
	bl	__ZNSt3__1lsIwNS_11char_traitsIwEEEERNS_13basic_ostreamIT_T0_EES7_PKc
	str	x0, [sp, #72]                   ; 8-byte Folded Spill
Ltmp221:
	b	LBB35_31
LBB35_31:
Ltmp222:
	mov	w0, #48
	bl	__ZNSt3__17setfillB6v15006IwEENS_8__iom_t4IT_EES2_
	str	w0, [sp, #68]                   ; 4-byte Folded Spill
Ltmp223:
	b	LBB35_32
LBB35_32:
	ldr	x0, [sp, #72]                   ; 8-byte Folded Reload
	ldr	w8, [sp, #68]                   ; 4-byte Folded Reload
	sub	x1, x29, #112
	stur	w8, [x29, #-112]
Ltmp224:
	bl	__ZNSt3__1lsB6v15006INS_11char_traitsIwEEEERNS_13basic_ostreamIwT_EES6_RKNS_8__iom_t4IwEE
	str	x0, [sp, #56]                   ; 8-byte Folded Spill
Ltmp225:
	b	LBB35_33
LBB35_33:
Ltmp226:
	mov	w0, #2
	bl	__ZNSt3__14setwB6v15006Ei
	str	w0, [sp, #52]                   ; 4-byte Folded Spill
Ltmp227:
	b	LBB35_34
LBB35_34:
	ldr	x0, [sp, #56]                   ; 8-byte Folded Reload
	ldr	w8, [sp, #52]                   ; 4-byte Folded Reload
	sub	x1, x29, #116
	stur	w8, [x29, #-116]
Ltmp228:
	bl	__ZNSt3__1lsB6v15006IwNS_11char_traitsIwEEEERNS_13basic_ostreamIT_T0_EES7_RKNS_8__iom_t6E
	str	x0, [sp, #40]                   ; 8-byte Folded Spill
Ltmp229:
	b	LBB35_35
LBB35_35:
	sub	x0, x29, #56
	mov	x1, #5
	bl	__ZNSt3__16vectorINS_12basic_stringIwNS_11char_traitsIwEENS_9allocatorIwEEEENS4_IS6_EEEixB6v15006Em
	mov	x1, x0
	ldr	x0, [sp, #40]                   ; 8-byte Folded Reload
Ltmp230:
	bl	__ZNSt3__1lsIwNS_11char_traitsIwEENS_9allocatorIwEEEERNS_13basic_ostreamIT_T0_EES9_RKNS_12basic_stringIS6_S7_T1_EE
	str	x0, [sp, #32]                   ; 8-byte Folded Spill
Ltmp231:
	b	LBB35_36
LBB35_36:
Ltmp232:
	ldr	x0, [sp, #32]                   ; 8-byte Folded Reload
	adrp	x1, l_.str.40@PAGE
	add	x1, x1, l_.str.40@PAGEOFF
	bl	__ZNSt3__1lsIwNS_11char_traitsIwEEEERNS_13basic_ostreamIT_T0_EES7_PKc
	str	x0, [sp, #24]                   ; 8-byte Folded Spill
Ltmp233:
	b	LBB35_37
LBB35_37:
Ltmp234:
	ldur	x1, [x29, #-152]                ; 8-byte Folded Reload
	ldr	x0, [sp, #24]                   ; 8-byte Folded Reload
	bl	__ZNSt3__1lsIwNS_11char_traitsIwEENS_9allocatorIwEEEERNS_13basic_ostreamIT_T0_EES9_RKNS_12basic_stringIS6_S7_T1_EE
	str	x0, [sp, #16]                   ; 8-byte Folded Spill
Ltmp235:
	b	LBB35_38
LBB35_38:
Ltmp236:
	ldr	x0, [sp, #16]                   ; 8-byte Folded Reload
	adrp	x1, l_.str.41@PAGE
	add	x1, x1, l_.str.41@PAGEOFF
	bl	__ZNSt3__1lsIwNS_11char_traitsIwEEEERNS_13basic_ostreamIT_T0_EES7_PKc
	str	x0, [sp, #8]                    ; 8-byte Folded Spill
Ltmp237:
	b	LBB35_39
LBB35_39:
Ltmp238:
	ldur	x1, [x29, #-144]                ; 8-byte Folded Reload
	ldr	x0, [sp, #8]                    ; 8-byte Folded Reload
	bl	__ZNSt3__1lsIwNS_11char_traitsIwEENS_9allocatorIwEEEERNS_13basic_ostreamIT_T0_EES9_RKNS_12basic_stringIS6_S7_T1_EE
	str	x0, [sp]                        ; 8-byte Folded Spill
Ltmp239:
	b	LBB35_40
LBB35_40:
Ltmp240:
	ldur	x1, [x29, #-136]                ; 8-byte Folded Reload
	ldr	x0, [sp]                        ; 8-byte Folded Reload
	bl	__ZNSt3__113basic_ostreamIwNS_11char_traitsIwEEElsB6v15006EPFRS3_S4_E
Ltmp241:
	b	LBB35_41
LBB35_41:
	sub	x0, x29, #56
	bl	__ZNSt3__16vectorINS_12basic_stringIwNS_11char_traitsIwEENS_9allocatorIwEEEENS4_IS6_EEED1B6v15006Ev
	ldp	x29, x30, [sp, #464]            ; 16-byte Folded Reload
	ldp	x28, x27, [sp, #448]            ; 16-byte Folded Reload
	add	sp, sp, #480
	retab
LBB35_42:
Ltmp242:
	mov	x8, x1
	stur	x0, [x29, #-64]
	stur	w8, [x29, #-68]
	sub	x0, x29, #56
	bl	__ZNSt3__16vectorINS_12basic_stringIwNS_11char_traitsIwEENS_9allocatorIwEEEENS4_IS6_EEED1B6v15006Ev
	b	LBB35_43
LBB35_43:
	ldur	x0, [x29, #-64]
	bl	__Unwind_Resume
Lfunc_end3:
	.cfi_endproc
	.section	__TEXT,__gcc_except_tab
	.p2align	2
GCC_except_table35:
Lexception3:
	.byte	255                             ; @LPStart Encoding = omit
	.byte	255                             ; @TType Encoding = omit
	.byte	1                               ; Call site Encoding = uleb128
	.uleb128 Lcst_end3-Lcst_begin3
Lcst_begin3:
	.uleb128 Lfunc_begin3-Lfunc_begin3      ; >> Call Site 1 <<
	.uleb128 Ltmp160-Lfunc_begin3           ;   Call between Lfunc_begin3 and Ltmp160
	.byte	0                               ;     has no landing pad
	.byte	0                               ;   On action: cleanup
	.uleb128 Ltmp160-Lfunc_begin3           ; >> Call Site 2 <<
	.uleb128 Ltmp241-Ltmp160                ;   Call between Ltmp160 and Ltmp241
	.uleb128 Ltmp242-Lfunc_begin3           ;     jumps to Ltmp242
	.byte	0                               ;   On action: cleanup
	.uleb128 Ltmp241-Lfunc_begin3           ; >> Call Site 3 <<
	.uleb128 Lfunc_end3-Ltmp241             ;   Call between Ltmp241 and Lfunc_end3
	.byte	0                               ;     has no landing pad
	.byte	0                               ;   On action: cleanup
Lcst_end3:
	.p2align	2
                                        ; -- End function
	.section	__TEXT,__text,regular,pure_instructions
	.globl	__ZNSt3__1lsIwNS_11char_traitsIwEENS_9allocatorIwEEEERNS_13basic_ostreamIT_T0_EES9_RKNS_12basic_stringIS6_S7_T1_EE ; -- Begin function _ZNSt3__1lsIwNS_11char_traitsIwEENS_9allocatorIwEEEERNS_13basic_ostreamIT_T0_EES9_RKNS_12basic_stringIS6_S7_T1_EE
	.weak_definition	__ZNSt3__1lsIwNS_11char_traitsIwEENS_9allocatorIwEEEERNS_13basic_ostreamIT_T0_EES9_RKNS_12basic_stringIS6_S7_T1_EE
	.p2align	2
__ZNSt3__1lsIwNS_11char_traitsIwEENS_9allocatorIwEEEERNS_13basic_ostreamIT_T0_EES9_RKNS_12basic_stringIS6_S7_T1_EE: ; @_ZNSt3__1lsIwNS_11char_traitsIwEENS_9allocatorIwEEEERNS_13basic_ostreamIT_T0_EES9_RKNS_12basic_stringIS6_S7_T1_EE
	.cfi_startproc
; %bb.0:
	pacibsp
	sub	sp, sp, #48
	.cfi_def_cfa_offset 48
	stp	x29, x30, [sp, #32]             ; 16-byte Folded Spill
	add	x29, sp, #32
	.cfi_def_cfa w29, 16
	.cfi_offset w30, -8
	.cfi_offset w29, -16
	stur	x0, [x29, #-8]
	str	x1, [sp, #16]
	ldur	x8, [x29, #-8]
	str	x8, [sp, #8]                    ; 8-byte Folded Spill
	ldr	x0, [sp, #16]
	bl	__ZNKSt3__112basic_stringIwNS_11char_traitsIwEENS_9allocatorIwEEE4dataB6v15006Ev
	str	x0, [sp]                        ; 8-byte Folded Spill
	ldr	x0, [sp, #16]
	bl	__ZNKSt3__112basic_stringIwNS_11char_traitsIwEENS_9allocatorIwEEE4sizeB6v15006Ev
	ldr	x1, [sp]                        ; 8-byte Folded Reload
	mov	x2, x0
	ldr	x0, [sp, #8]                    ; 8-byte Folded Reload
	bl	__ZNSt3__124__put_character_sequenceIwNS_11char_traitsIwEEEERNS_13basic_ostreamIT_T0_EES7_PKS4_m
	ldp	x29, x30, [sp, #32]             ; 16-byte Folded Reload
	add	sp, sp, #48
	retab
	.cfi_endproc
                                        ; -- End function
	.globl	__ZNSt3__1lsIwNS_11char_traitsIwEEEERNS_13basic_ostreamIT_T0_EES7_PKc ; -- Begin function _ZNSt3__1lsIwNS_11char_traitsIwEEEERNS_13basic_ostreamIT_T0_EES7_PKc
	.weak_definition	__ZNSt3__1lsIwNS_11char_traitsIwEEEERNS_13basic_ostreamIT_T0_EES7_PKc
	.p2align	2
__ZNSt3__1lsIwNS_11char_traitsIwEEEERNS_13basic_ostreamIT_T0_EES7_PKc: ; @_ZNSt3__1lsIwNS_11char_traitsIwEEEERNS_13basic_ostreamIT_T0_EES7_PKc
Lfunc_begin4:
	.cfi_startproc
	.cfi_personality 155, ___gxx_personality_v0
	.cfi_lsda 16, Lexception4
; %bb.0:
	pacibsp
	stp	x28, x27, [sp, #-32]!           ; 16-byte Folded Spill
	.cfi_def_cfa_offset 32
	stp	x29, x30, [sp, #16]             ; 16-byte Folded Spill
	add	x29, sp, #16
	.cfi_def_cfa w29, 16
	.cfi_offset w30, -8
	.cfi_offset w29, -16
	.cfi_offset w27, -24
	.cfi_offset w28, -32
	sub	sp, sp, #624
                                        ; implicit-def: $x16
                                        ; implicit-def: $x17
	adrp	x16, _free@GOTPAGE
	ldr	x16, [x16, _free@GOTPAGEOFF]
	paciza	x16
	str	x16, [sp, #88]                  ; 8-byte Folded Spill
	adrp	x8, ___stack_chk_guard@GOTPAGE
	ldr	x8, [x8, ___stack_chk_guard@GOTPAGEOFF]
	ldr	x8, [x8]
	stur	x8, [x29, #-24]
	str	x0, [sp, #208]
	str	x1, [sp, #200]
	ldr	x1, [sp, #208]
Ltmp243:
	add	x0, sp, #184
	bl	__ZNSt3__113basic_ostreamIwNS_11char_traitsIwEEE6sentryC1ERS3_
Ltmp244:
	b	LBB37_1
LBB37_1:
Ltmp246:
	add	x0, sp, #184
	bl	__ZNKSt3__113basic_ostreamIwNS_11char_traitsIwEEE6sentrycvbB6v15006Ev
	str	w0, [sp, #84]                   ; 4-byte Folded Spill
Ltmp247:
	b	LBB37_2
LBB37_2:
	ldr	w8, [sp, #84]                   ; 4-byte Folded Reload
	tbz	w8, #0, LBB37_26
	b	LBB37_3
LBB37_3:
	ldr	x0, [sp, #200]
	bl	__ZNSt3__111char_traitsIcE6lengthEPKc
	ldr	x8, [sp, #88]                   ; 8-byte Folded Reload
	str	x0, [sp, #160]
	mov	w9, #100
	str	w9, [sp, #156]
	add	x9, sp, #216
	str	x9, [sp, #144]
	add	x2, sp, #120
	str	x8, [sp, #120]
	add	x0, sp, #128
	mov	x1, #0
	bl	__ZNSt3__110unique_ptrIwPFvPvEEC1B6v15006ILb1EvEEPwNS_16__dependent_typeINS_27__unique_ptr_deleter_sfinaeIS3_EEXT_EE20__good_rval_ref_typeE
	ldr	x8, [sp, #160]
	subs	x8, x8, #100
	cset	w8, ls
	tbnz	w8, #0, LBB37_12
	b	LBB37_4
LBB37_4:
	ldr	x8, [sp, #160]
	lsl	x0, x8, #2
Ltmp249:
	bl	_malloc
	str	x0, [sp, #72]                   ; 8-byte Folded Spill
Ltmp250:
	b	LBB37_5
LBB37_5:
	ldr	x8, [sp, #72]                   ; 8-byte Folded Reload
	str	x8, [sp, #144]
	ldr	x8, [sp, #144]
	subs	x8, x8, #0
	cset	w8, ne
	tbnz	w8, #0, LBB37_11
	b	LBB37_6
LBB37_6:
Ltmp259:
	bl	__ZSt17__throw_bad_allocv
Ltmp260:
	b	LBB37_7
LBB37_7:
	brk	#0x1
LBB37_8:
Ltmp245:
	mov	x8, x1
	str	x0, [sp, #176]
	str	w8, [sp, #172]
	b	LBB37_28
LBB37_9:
Ltmp248:
	mov	x8, x1
	str	x0, [sp, #176]
	str	w8, [sp, #172]
	b	LBB37_27
LBB37_10:
Ltmp261:
	mov	x8, x1
	str	x0, [sp, #176]
	str	w8, [sp, #172]
	add	x0, sp, #128
	bl	__ZNSt3__110unique_ptrIwPFvPvEED1B6v15006Ev
	b	LBB37_27
LBB37_11:
	ldr	x1, [sp, #144]
	add	x0, sp, #128
	bl	__ZNSt3__110unique_ptrIwPFvPvEE5resetB6v15006EPw
	b	LBB37_12
LBB37_12:
	ldr	x8, [sp, #144]
	str	x8, [sp, #112]
	b	LBB37_13
LBB37_13:                               ; =>This Inner Loop Header: Depth=1
	ldr	x8, [sp, #200]
	ldrsb	w8, [x8]
	subs	w8, w8, #0
	cset	w8, eq
	tbnz	w8, #0, LBB37_17
	b	LBB37_14
LBB37_14:                               ;   in Loop: Header=BB37_13 Depth=1
	ldr	x8, [sp, #208]
	ldr	x16, [x8]
	mov	x9, x8
	mov	x17, x9
	movk	x17, #45073, lsl #48
	autda	x16, x17
	ldur	x9, [x16, #-24]
	add	x0, x8, x9
	ldr	x8, [sp, #200]
	ldrsb	w1, [x8]
Ltmp257:
	bl	__ZNKSt3__19basic_iosIwNS_11char_traitsIwEEE5widenB6v15006Ec
	str	w0, [sp, #68]                   ; 4-byte Folded Spill
Ltmp258:
	b	LBB37_15
LBB37_15:                               ;   in Loop: Header=BB37_13 Depth=1
	ldr	w8, [sp, #68]                   ; 4-byte Folded Reload
	ldr	x9, [sp, #112]
	str	w8, [x9]
	b	LBB37_16
LBB37_16:                               ;   in Loop: Header=BB37_13 Depth=1
	ldr	x8, [sp, #200]
	add	x8, x8, #1
	str	x8, [sp, #200]
	ldr	x8, [sp, #112]
	add	x8, x8, #4
	str	x8, [sp, #112]
	b	LBB37_13
LBB37_17:
	ldr	x1, [sp, #208]
	add	x0, sp, #96
	bl	__ZNSt3__119ostreambuf_iteratorIwNS_11char_traitsIwEEEC1B6v15006ERNS_13basic_ostreamIwS2_EE
	ldr	x8, [sp, #144]
	str	x8, [sp, #56]                   ; 8-byte Folded Spill
	ldr	x8, [sp, #208]
	ldr	x16, [x8]
	mov	x9, x8
	mov	x17, x9
	movk	x17, #45073, lsl #48
	autda	x16, x17
	ldur	x9, [x16, #-24]
	add	x0, x8, x9
	bl	__ZNKSt3__18ios_base5flagsB6v15006Ev
	mov	w8, #176
	and	w8, w0, w8
	subs	w8, w8, #32
	cset	w8, ne
	tbnz	w8, #0, LBB37_19
	b	LBB37_18
LBB37_18:
	ldr	x8, [sp, #144]
	ldr	x9, [sp, #160]
	add	x8, x8, x9, lsl #2
	str	x8, [sp, #48]                   ; 8-byte Folded Spill
	b	LBB37_20
LBB37_19:
	ldr	x8, [sp, #144]
	str	x8, [sp, #48]                   ; 8-byte Folded Spill
	b	LBB37_20
LBB37_20:
	ldr	x8, [sp, #48]                   ; 8-byte Folded Reload
	str	x8, [sp, #16]                   ; 8-byte Folded Spill
	ldr	x8, [sp, #144]
	ldr	x9, [sp, #160]
	add	x8, x8, x9, lsl #2
	str	x8, [sp, #24]                   ; 8-byte Folded Spill
	ldr	x8, [sp, #208]
	ldr	x16, [x8]
	mov	x9, x8
	mov	x17, x9
	movk	x17, #45073, lsl #48
	autda	x16, x17
	ldur	x9, [x16, #-24]
	add	x8, x8, x9
	str	x8, [sp, #32]                   ; 8-byte Folded Spill
	ldr	x8, [sp, #208]
	ldr	x16, [x8]
	mov	x9, x8
	mov	x17, x9
	movk	x17, #45073, lsl #48
	autda	x16, x17
	ldur	x9, [x16, #-24]
	add	x0, x8, x9
Ltmp251:
	bl	__ZNKSt3__19basic_iosIwNS_11char_traitsIwEEE4fillB6v15006Ev
	str	w0, [sp, #44]                   ; 4-byte Folded Spill
Ltmp252:
	b	LBB37_21
LBB37_21:
	ldr	w5, [sp, #44]                   ; 4-byte Folded Reload
	ldr	x4, [sp, #32]                   ; 8-byte Folded Reload
	ldr	x3, [sp, #24]                   ; 8-byte Folded Reload
	ldr	x2, [sp, #16]                   ; 8-byte Folded Reload
	ldr	x1, [sp, #56]                   ; 8-byte Folded Reload
	ldr	x0, [sp, #96]
Ltmp253:
	bl	__ZNSt3__116__pad_and_outputIwNS_11char_traitsIwEEEENS_19ostreambuf_iteratorIT_T0_EES6_PKS4_S8_S8_RNS_8ios_baseES4_
	str	x0, [sp, #8]                    ; 8-byte Folded Spill
Ltmp254:
	b	LBB37_22
LBB37_22:
	ldr	x8, [sp, #8]                    ; 8-byte Folded Reload
	add	x0, sp, #104
	str	x8, [sp, #104]
	bl	__ZNKSt3__119ostreambuf_iteratorIwNS_11char_traitsIwEEE6failedB6v15006Ev
	tbz	w0, #0, LBB37_25
	b	LBB37_23
LBB37_23:
	ldr	x8, [sp, #208]
	ldr	x16, [x8]
	mov	x9, x8
	mov	x17, x9
	movk	x17, #45073, lsl #48
	autda	x16, x17
	ldur	x9, [x16, #-24]
	add	x0, x8, x9
Ltmp255:
	mov	w1, #5
	bl	__ZNSt3__19basic_iosIwNS_11char_traitsIwEEE8setstateB6v15006Ej
Ltmp256:
	b	LBB37_24
LBB37_24:
	b	LBB37_25
LBB37_25:
	add	x0, sp, #128
	bl	__ZNSt3__110unique_ptrIwPFvPvEED1B6v15006Ev
	b	LBB37_26
LBB37_26:
	add	x0, sp, #184
	bl	__ZNSt3__113basic_ostreamIwNS_11char_traitsIwEEE6sentryD1Ev
	b	LBB37_30
LBB37_27:
	add	x0, sp, #184
	bl	__ZNSt3__113basic_ostreamIwNS_11char_traitsIwEEE6sentryD1Ev
	b	LBB37_28
LBB37_28:
	ldr	x0, [sp, #176]
	bl	___cxa_begin_catch
	ldr	x8, [sp, #208]
	ldr	x16, [x8]
	mov	x9, x8
	mov	x17, x9
	movk	x17, #45073, lsl #48
	autda	x16, x17
	ldur	x9, [x16, #-24]
	add	x0, x8, x9
Ltmp262:
	bl	__ZNSt3__18ios_base33__set_badbit_and_consider_rethrowEv
Ltmp263:
	b	LBB37_29
LBB37_29:
	bl	___cxa_end_catch
	b	LBB37_30
LBB37_30:
	ldr	x8, [sp, #208]
	str	x8, [sp]                        ; 8-byte Folded Spill
	ldur	x9, [x29, #-24]
	adrp	x8, ___stack_chk_guard@GOTPAGE
	ldr	x8, [x8, ___stack_chk_guard@GOTPAGEOFF]
	ldr	x8, [x8]
	subs	x8, x8, x9
	cset	w8, eq
	tbnz	w8, #0, LBB37_32
	b	LBB37_31
LBB37_31:
	bl	___stack_chk_fail
LBB37_32:
	ldr	x0, [sp]                        ; 8-byte Folded Reload
	add	sp, sp, #624
	ldp	x29, x30, [sp, #16]             ; 16-byte Folded Reload
	ldp	x28, x27, [sp], #32             ; 16-byte Folded Reload
	retab
LBB37_33:
Ltmp264:
	mov	x8, x1
	str	x0, [sp, #176]
	str	w8, [sp, #172]
Ltmp265:
	bl	___cxa_end_catch
Ltmp266:
	b	LBB37_34
LBB37_34:
	b	LBB37_35
LBB37_35:
	ldr	x0, [sp, #176]
	bl	__Unwind_Resume
LBB37_36:
Ltmp267:
	bl	___clang_call_terminate
Lfunc_end4:
	.cfi_endproc
	.section	__TEXT,__gcc_except_tab
	.p2align	2
GCC_except_table37:
Lexception4:
	.byte	255                             ; @LPStart Encoding = omit
	.byte	155                             ; @TType Encoding = indirect pcrel sdata4
	.uleb128 Lttbase0-Lttbaseref0
Lttbaseref0:
	.byte	1                               ; Call site Encoding = uleb128
	.uleb128 Lcst_end4-Lcst_begin4
Lcst_begin4:
	.uleb128 Ltmp243-Lfunc_begin4           ; >> Call Site 1 <<
	.uleb128 Ltmp244-Ltmp243                ;   Call between Ltmp243 and Ltmp244
	.uleb128 Ltmp245-Lfunc_begin4           ;     jumps to Ltmp245
	.byte	1                               ;   On action: 1
	.uleb128 Ltmp246-Lfunc_begin4           ; >> Call Site 2 <<
	.uleb128 Ltmp247-Ltmp246                ;   Call between Ltmp246 and Ltmp247
	.uleb128 Ltmp248-Lfunc_begin4           ;     jumps to Ltmp248
	.byte	1                               ;   On action: 1
	.uleb128 Ltmp249-Lfunc_begin4           ; >> Call Site 3 <<
	.uleb128 Ltmp256-Ltmp249                ;   Call between Ltmp249 and Ltmp256
	.uleb128 Ltmp261-Lfunc_begin4           ;     jumps to Ltmp261
	.byte	1                               ;   On action: 1
	.uleb128 Ltmp256-Lfunc_begin4           ; >> Call Site 4 <<
	.uleb128 Ltmp262-Ltmp256                ;   Call between Ltmp256 and Ltmp262
	.byte	0                               ;     has no landing pad
	.byte	0                               ;   On action: cleanup
	.uleb128 Ltmp262-Lfunc_begin4           ; >> Call Site 5 <<
	.uleb128 Ltmp263-Ltmp262                ;   Call between Ltmp262 and Ltmp263
	.uleb128 Ltmp264-Lfunc_begin4           ;     jumps to Ltmp264
	.byte	0                               ;   On action: cleanup
	.uleb128 Ltmp263-Lfunc_begin4           ; >> Call Site 6 <<
	.uleb128 Ltmp265-Ltmp263                ;   Call between Ltmp263 and Ltmp265
	.byte	0                               ;     has no landing pad
	.byte	0                               ;   On action: cleanup
	.uleb128 Ltmp265-Lfunc_begin4           ; >> Call Site 7 <<
	.uleb128 Ltmp266-Ltmp265                ;   Call between Ltmp265 and Ltmp266
	.uleb128 Ltmp267-Lfunc_begin4           ;     jumps to Ltmp267
	.byte	1                               ;   On action: 1
	.uleb128 Ltmp266-Lfunc_begin4           ; >> Call Site 8 <<
	.uleb128 Lfunc_end4-Ltmp266             ;   Call between Ltmp266 and Lfunc_end4
	.byte	0                               ;     has no landing pad
	.byte	0                               ;   On action: cleanup
Lcst_end4:
	.byte	1                               ; >> Action Record 1 <<
                                        ;   Catch TypeInfo 1
	.byte	0                               ;   No further actions
	.p2align	2
                                        ; >> Catch TypeInfos <<
	.long	0                               ; TypeInfo 1
Lttbase0:
	.p2align	2
                                        ; -- End function
	.section	__TEXT,__text,regular,pure_instructions
	.private_extern	__ZNSt3__1lsB6v15006IwNS_11char_traitsIwEEEERNS_13basic_ostreamIT_T0_EES7_RKNS_8__iom_t6E ; -- Begin function _ZNSt3__1lsB6v15006IwNS_11char_traitsIwEEEERNS_13basic_ostreamIT_T0_EES7_RKNS_8__iom_t6E
	.globl	__ZNSt3__1lsB6v15006IwNS_11char_traitsIwEEEERNS_13basic_ostreamIT_T0_EES7_RKNS_8__iom_t6E
	.weak_definition	__ZNSt3__1lsB6v15006IwNS_11char_traitsIwEEEERNS_13basic_ostreamIT_T0_EES7_RKNS_8__iom_t6E
	.p2align	2
__ZNSt3__1lsB6v15006IwNS_11char_traitsIwEEEERNS_13basic_ostreamIT_T0_EES7_RKNS_8__iom_t6E: ; @_ZNSt3__1lsB6v15006IwNS_11char_traitsIwEEEERNS_13basic_ostreamIT_T0_EES7_RKNS_8__iom_t6E
	.cfi_startproc
; %bb.0:
	pacibsp
	sub	sp, sp, #32
	.cfi_def_cfa_offset 32
	stp	x29, x30, [sp, #16]             ; 16-byte Folded Spill
	add	x29, sp, #16
	.cfi_def_cfa w29, 16
	.cfi_offset w30, -8
	.cfi_offset w29, -16
	str	x0, [sp, #8]
	str	x1, [sp]
	ldr	x8, [sp, #8]
	ldr	x16, [x8]
	mov	x9, x8
	mov	x17, x9
	movk	x17, #45073, lsl #48
	autda	x16, x17
	ldur	x9, [x16, #-24]
	ldr	x10, [sp]
	ldrsw	x1, [x10]
	add	x0, x8, x9
	bl	__ZNSt3__18ios_base5widthB6v15006El
	ldr	x0, [sp, #8]
	ldp	x29, x30, [sp, #16]             ; 16-byte Folded Reload
	add	sp, sp, #32
	retab
	.cfi_endproc
                                        ; -- End function
	.globl	__ZNSt3__1lsB6v15006INS_11char_traitsIwEEEERNS_13basic_ostreamIwT_EES6_RKNS_8__iom_t4IwEE ; -- Begin function _ZNSt3__1lsB6v15006INS_11char_traitsIwEEEERNS_13basic_ostreamIwT_EES6_RKNS_8__iom_t4IwEE
	.weak_definition	__ZNSt3__1lsB6v15006INS_11char_traitsIwEEEERNS_13basic_ostreamIwT_EES6_RKNS_8__iom_t4IwEE
	.p2align	2
__ZNSt3__1lsB6v15006INS_11char_traitsIwEEEERNS_13basic_ostreamIwT_EES6_RKNS_8__iom_t4IwEE: ; @_ZNSt3__1lsB6v15006INS_11char_traitsIwEEEERNS_13basic_ostreamIwT_EES6_RKNS_8__iom_t4IwEE
	.cfi_startproc
; %bb.0:
	pacibsp
	sub	sp, sp, #32
	.cfi_def_cfa_offset 32
	stp	x29, x30, [sp, #16]             ; 16-byte Folded Spill
	add	x29, sp, #16
	.cfi_def_cfa w29, 16
	.cfi_offset w30, -8
	.cfi_offset w29, -16
	str	x0, [sp, #8]
	str	x1, [sp]
	ldr	x8, [sp, #8]
	ldr	x16, [x8]
	mov	x9, x8
	mov	x17, x9
	movk	x17, #45073, lsl #48
	autda	x16, x17
	ldur	x9, [x16, #-24]
	ldr	x10, [sp]
	ldr	w1, [x10]
	add	x0, x8, x9
	bl	__ZNSt3__19basic_iosIwNS_11char_traitsIwEEE4fillB6v15006Ew
	ldr	x0, [sp, #8]
	ldp	x29, x30, [sp, #16]             ; 16-byte Folded Reload
	add	sp, sp, #32
	retab
	.cfi_endproc
                                        ; -- End function
	.private_extern	__ZNSt3__17setfillB6v15006IwEENS_8__iom_t4IT_EES2_ ; -- Begin function _ZNSt3__17setfillB6v15006IwEENS_8__iom_t4IT_EES2_
	.globl	__ZNSt3__17setfillB6v15006IwEENS_8__iom_t4IT_EES2_
	.weak_definition	__ZNSt3__17setfillB6v15006IwEENS_8__iom_t4IT_EES2_
	.p2align	2
__ZNSt3__17setfillB6v15006IwEENS_8__iom_t4IT_EES2_: ; @_ZNSt3__17setfillB6v15006IwEENS_8__iom_t4IT_EES2_
	.cfi_startproc
; %bb.0:
	pacibsp
	sub	sp, sp, #32
	.cfi_def_cfa_offset 32
	stp	x29, x30, [sp, #16]             ; 16-byte Folded Spill
	add	x29, sp, #16
	.cfi_def_cfa w29, 16
	.cfi_offset w30, -8
	.cfi_offset w29, -16
	str	w0, [sp, #8]
	ldr	w1, [sp, #8]
	sub	x0, x29, #4
	bl	__ZNSt3__18__iom_t4IwEC1B6v15006Ew
	ldur	w0, [x29, #-4]
	ldp	x29, x30, [sp, #16]             ; 16-byte Folded Reload
	add	sp, sp, #32
	retab
	.cfi_endproc
                                        ; -- End function
	.private_extern	__ZNSt3__16vectorINS_12basic_stringIwNS_11char_traitsIwEENS_9allocatorIwEEEENS4_IS6_EEEixB6v15006Em ; -- Begin function _ZNSt3__16vectorINS_12basic_stringIwNS_11char_traitsIwEENS_9allocatorIwEEEENS4_IS6_EEEixB6v15006Em
	.globl	__ZNSt3__16vectorINS_12basic_stringIwNS_11char_traitsIwEENS_9allocatorIwEEEENS4_IS6_EEEixB6v15006Em
	.weak_definition	__ZNSt3__16vectorINS_12basic_stringIwNS_11char_traitsIwEENS_9allocatorIwEEEENS4_IS6_EEEixB6v15006Em
	.p2align	2
__ZNSt3__16vectorINS_12basic_stringIwNS_11char_traitsIwEENS_9allocatorIwEEEENS4_IS6_EEEixB6v15006Em: ; @_ZNSt3__16vectorINS_12basic_stringIwNS_11char_traitsIwEENS_9allocatorIwEEEENS4_IS6_EEEixB6v15006Em
	.cfi_startproc
; %bb.0:
	sub	sp, sp, #16
	.cfi_def_cfa_offset 16
	str	x0, [sp, #8]
	str	x1, [sp]
	ldr	x8, [sp, #8]
	ldr	x8, [x8]
	ldr	x9, [sp]
	mov	x10, #24
	mul	x9, x9, x10
	add	x0, x8, x9
	add	sp, sp, #16
	ret
	.cfi_endproc
                                        ; -- End function
	.private_extern	__ZNSt3__113basic_ostreamIwNS_11char_traitsIwEEElsB6v15006EPFRS3_S4_E ; -- Begin function _ZNSt3__113basic_ostreamIwNS_11char_traitsIwEEElsB6v15006EPFRS3_S4_E
	.globl	__ZNSt3__113basic_ostreamIwNS_11char_traitsIwEEElsB6v15006EPFRS3_S4_E
	.weak_definition	__ZNSt3__113basic_ostreamIwNS_11char_traitsIwEEElsB6v15006EPFRS3_S4_E
	.p2align	2
__ZNSt3__113basic_ostreamIwNS_11char_traitsIwEEElsB6v15006EPFRS3_S4_E: ; @_ZNSt3__113basic_ostreamIwNS_11char_traitsIwEEElsB6v15006EPFRS3_S4_E
	.cfi_startproc
; %bb.0:
	pacibsp
	sub	sp, sp, #32
	.cfi_def_cfa_offset 32
	stp	x29, x30, [sp, #16]             ; 16-byte Folded Spill
	add	x29, sp, #16
	.cfi_def_cfa w29, 16
	.cfi_offset w30, -8
	.cfi_offset w29, -16
	str	x0, [sp, #8]
	str	x1, [sp]
	ldr	x0, [sp, #8]
	ldr	x8, [sp]
	blraaz	x8
	ldp	x29, x30, [sp, #16]             ; 16-byte Folded Reload
	add	sp, sp, #32
	retab
	.cfi_endproc
                                        ; -- End function
	.globl	__ZNSt3__14endlIwNS_11char_traitsIwEEEERNS_13basic_ostreamIT_T0_EES7_ ; -- Begin function _ZNSt3__14endlIwNS_11char_traitsIwEEEERNS_13basic_ostreamIT_T0_EES7_
	.weak_definition	__ZNSt3__14endlIwNS_11char_traitsIwEEEERNS_13basic_ostreamIT_T0_EES7_
	.p2align	2
__ZNSt3__14endlIwNS_11char_traitsIwEEEERNS_13basic_ostreamIT_T0_EES7_: ; @_ZNSt3__14endlIwNS_11char_traitsIwEEEERNS_13basic_ostreamIT_T0_EES7_
	.cfi_startproc
; %bb.0:
	pacibsp
	sub	sp, sp, #32
	.cfi_def_cfa_offset 32
	stp	x29, x30, [sp, #16]             ; 16-byte Folded Spill
	add	x29, sp, #16
	.cfi_def_cfa w29, 16
	.cfi_offset w30, -8
	.cfi_offset w29, -16
	str	x0, [sp, #8]
	ldr	x8, [sp, #8]
	str	x8, [sp]                        ; 8-byte Folded Spill
	ldr	x8, [sp, #8]
	ldr	x16, [x8]
	mov	x9, x8
	mov	x17, x9
	movk	x17, #45073, lsl #48
	autda	x16, x17
	ldur	x9, [x16, #-24]
	add	x0, x8, x9
	mov	w1, #10
	bl	__ZNKSt3__19basic_iosIwNS_11char_traitsIwEEE5widenB6v15006Ec
	mov	x1, x0
	ldr	x0, [sp]                        ; 8-byte Folded Reload
	bl	__ZNSt3__113basic_ostreamIwNS_11char_traitsIwEEE3putEw
	ldr	x0, [sp, #8]
	bl	__ZNSt3__113basic_ostreamIwNS_11char_traitsIwEEE5flushEv
	ldr	x0, [sp, #8]
	ldp	x29, x30, [sp, #16]             ; 16-byte Folded Reload
	add	sp, sp, #32
	retab
	.cfi_endproc
                                        ; -- End function
	.globl	__ZN11SnakeSenzia4Core5Sound13PlaySoundLoopENSt3__112basic_stringIcNS2_11char_traitsIcEENS2_9allocatorIcEEEE ; -- Begin function _ZN11SnakeSenzia4Core5Sound13PlaySoundLoopENSt3__112basic_stringIcNS2_11char_traitsIcEENS2_9allocatorIcEEEE
	.p2align	2
__ZN11SnakeSenzia4Core5Sound13PlaySoundLoopENSt3__112basic_stringIcNS2_11char_traitsIcEENS2_9allocatorIcEEEE: ; @_ZN11SnakeSenzia4Core5Sound13PlaySoundLoopENSt3__112basic_stringIcNS2_11char_traitsIcEENS2_9allocatorIcEEEE
	.cfi_startproc
; %bb.0:
	sub	sp, sp, #16
	.cfi_def_cfa_offset 16
	str	x0, [sp, #8]
	add	sp, sp, #16
	ret
	.cfi_endproc
                                        ; -- End function
	.globl	__ZN11SnakeSenzia4Core5Sound9PlaySoundENSt3__112basic_stringIcNS2_11char_traitsIcEENS2_9allocatorIcEEEE ; -- Begin function _ZN11SnakeSenzia4Core5Sound9PlaySoundENSt3__112basic_stringIcNS2_11char_traitsIcEENS2_9allocatorIcEEEE
	.p2align	2
__ZN11SnakeSenzia4Core5Sound9PlaySoundENSt3__112basic_stringIcNS2_11char_traitsIcEENS2_9allocatorIcEEEE: ; @_ZN11SnakeSenzia4Core5Sound9PlaySoundENSt3__112basic_stringIcNS2_11char_traitsIcEENS2_9allocatorIcEEEE
Lfunc_begin5:
	.cfi_startproc
	.cfi_personality 155, ___gxx_personality_v0
	.cfi_lsda 16, Lexception5
; %bb.0:
	pacibsp
	sub	sp, sp, #128
	.cfi_def_cfa_offset 128
	stp	x29, x30, [sp, #112]            ; 16-byte Folded Spill
	add	x29, sp, #112
	.cfi_def_cfa w29, 16
	.cfi_offset w30, -8
	.cfi_offset w29, -16
                                        ; implicit-def: $x16
                                        ; implicit-def: $x17
	adrp	x16, __ZN11SnakeSenzia4Core5Sound13PlaySoundLoopENSt3__112basic_stringIcNS2_11char_traitsIcEENS2_9allocatorIcEEEE@PAGE
	add	x16, x16, __ZN11SnakeSenzia4Core5Sound13PlaySoundLoopENSt3__112basic_stringIcNS2_11char_traitsIcEENS2_9allocatorIcEEEE@PAGEOFF
	mov	x17, #3663
	pacia	x16, x17
	stur	x0, [x29, #-8]
	ldur	x9, [x29, #-8]
	stur	x16, [x29, #-24]
	stur	xzr, [x29, #-16]
	add	x8, sp, #32
	str	x8, [sp, #8]                    ; 8-byte Folded Spill
	str	x9, [sp, #32]
	ldur	x10, [x29, #-24]
	ldur	x9, [x29, #-16]
	str	x10, [sp, #40]
	str	x9, [sp, #48]
	add	x0, x8, #24
	bl	__ZNSt3__112basic_stringIcNS_11char_traitsIcEENS_9allocatorIcEEEC1ERKS5_
	ldr	x0, [sp, #8]                    ; 8-byte Folded Reload
Ltmp270:
	sub	x8, x29, #32
	bl	__ZNSt3__15asyncB6v15006IZN11SnakeSenzia4Core5Sound9PlaySoundENS_12basic_stringIcNS_11char_traitsIcEENS_9allocatorIcEEEEE3$_0JEEENS_6futureINS_11__invoke_ofINS_5decayIT_E4typeEJDpNSD_IT0_E4typeEEE4typeEEEOSE_DpOSH_
Ltmp271:
	b	LBB45_1
LBB45_1:
	add	x0, sp, #32
	bl	__ZZN11SnakeSenzia4Core5Sound9PlaySoundENSt3__112basic_stringIcNS2_11char_traitsIcEENS2_9allocatorIcEEEEEN3$_0D1Ev
	sub	x0, x29, #32
	bl	__ZNSt3__16futureIvED1Ev
	ldp	x29, x30, [sp, #112]            ; 16-byte Folded Reload
	add	sp, sp, #128
	retab
LBB45_2:
Ltmp272:
	mov	x8, x1
	str	x0, [sp, #24]
	str	w8, [sp, #20]
	add	x0, sp, #32
	bl	__ZZN11SnakeSenzia4Core5Sound9PlaySoundENSt3__112basic_stringIcNS2_11char_traitsIcEENS2_9allocatorIcEEEEEN3$_0D1Ev
	b	LBB45_3
LBB45_3:
	ldr	x0, [sp, #24]
	bl	__Unwind_Resume
Lfunc_end5:
	.cfi_endproc
	.section	__TEXT,__gcc_except_tab
	.p2align	2
GCC_except_table45:
Lexception5:
	.byte	255                             ; @LPStart Encoding = omit
	.byte	255                             ; @TType Encoding = omit
	.byte	1                               ; Call site Encoding = uleb128
	.uleb128 Lcst_end5-Lcst_begin5
Lcst_begin5:
	.uleb128 Lfunc_begin5-Lfunc_begin5      ; >> Call Site 1 <<
	.uleb128 Ltmp270-Lfunc_begin5           ;   Call between Lfunc_begin5 and Ltmp270
	.byte	0                               ;     has no landing pad
	.byte	0                               ;   On action: cleanup
	.uleb128 Ltmp270-Lfunc_begin5           ; >> Call Site 2 <<
	.uleb128 Ltmp271-Ltmp270                ;   Call between Ltmp270 and Ltmp271
	.uleb128 Ltmp272-Lfunc_begin5           ;     jumps to Ltmp272
	.byte	0                               ;   On action: cleanup
	.uleb128 Ltmp271-Lfunc_begin5           ; >> Call Site 3 <<
	.uleb128 Lfunc_end5-Ltmp271             ;   Call between Ltmp271 and Lfunc_end5
	.byte	0                               ;     has no landing pad
	.byte	0                               ;   On action: cleanup
Lcst_end5:
	.p2align	2
                                        ; -- End function
	.section	__TEXT,__text,regular,pure_instructions
	.p2align	2                               ; -- Begin function _ZNSt3__15asyncB6v15006IZN11SnakeSenzia4Core5Sound9PlaySoundENS_12basic_stringIcNS_11char_traitsIcEENS_9allocatorIcEEEEE3$_0JEEENS_6futureINS_11__invoke_ofINS_5decayIT_E4typeEJDpNSD_IT0_E4typeEEE4typeEEEOSE_DpOSH_
__ZNSt3__15asyncB6v15006IZN11SnakeSenzia4Core5Sound9PlaySoundENS_12basic_stringIcNS_11char_traitsIcEENS_9allocatorIcEEEEE3$_0JEEENS_6futureINS_11__invoke_ofINS_5decayIT_E4typeEJDpNSD_IT0_E4typeEEE4typeEEEOSE_DpOSH_: ; @"_ZNSt3__15asyncB6v15006IZN11SnakeSenzia4Core5Sound9PlaySoundENS_12basic_stringIcNS_11char_traitsIcEENS_9allocatorIcEEEEE3$_0JEEENS_6futureINS_11__invoke_ofINS_5decayIT_E4typeEJDpNSD_IT0_E4typeEEE4typeEEEOSE_DpOSH_"
	.cfi_startproc
; %bb.0:
	pacibsp
	sub	sp, sp, #32
	.cfi_def_cfa_offset 32
	stp	x29, x30, [sp, #16]             ; 16-byte Folded Spill
	add	x29, sp, #16
	.cfi_def_cfa w29, 16
	.cfi_offset w30, -8
	.cfi_offset w29, -16
	mov	x9, x8
	str	x9, [sp, #8]
	str	x0, [sp]
	ldr	x1, [sp]
	mov	w0, #3
	bl	__ZNSt3__15asyncIZN11SnakeSenzia4Core5Sound9PlaySoundENS_12basic_stringIcNS_11char_traitsIcEENS_9allocatorIcEEEEE3$_0JEEENS_6futureINS_11__invoke_ofINS_5decayIT_E4typeEJDpNSD_IT0_E4typeEEE4typeEEENS_6launchEOSE_DpOSH_
	ldp	x29, x30, [sp, #16]             ; 16-byte Folded Reload
	add	sp, sp, #32
	retab
	.cfi_endproc
                                        ; -- End function
	.p2align	2                               ; -- Begin function _ZZN11SnakeSenzia4Core5Sound9PlaySoundENSt3__112basic_stringIcNS2_11char_traitsIcEENS2_9allocatorIcEEEEEN3$_0D1Ev
__ZZN11SnakeSenzia4Core5Sound9PlaySoundENSt3__112basic_stringIcNS2_11char_traitsIcEENS2_9allocatorIcEEEEEN3$_0D1Ev: ; @"_ZZN11SnakeSenzia4Core5Sound9PlaySoundENSt3__112basic_stringIcNS2_11char_traitsIcEENS2_9allocatorIcEEEEEN3$_0D1Ev"
	.cfi_startproc
; %bb.0:
	pacibsp
	sub	sp, sp, #32
	.cfi_def_cfa_offset 32
	stp	x29, x30, [sp, #16]             ; 16-byte Folded Spill
	add	x29, sp, #16
	.cfi_def_cfa w29, 16
	.cfi_offset w30, -8
	.cfi_offset w29, -16
	str	x0, [sp, #8]
	ldr	x0, [sp, #8]
	str	x0, [sp]                        ; 8-byte Folded Spill
	bl	__ZZN11SnakeSenzia4Core5Sound9PlaySoundENSt3__112basic_stringIcNS2_11char_traitsIcEENS2_9allocatorIcEEEEEN3$_0D2Ev
	ldr	x0, [sp]                        ; 8-byte Folded Reload
	ldp	x29, x30, [sp, #16]             ; 16-byte Folded Reload
	add	sp, sp, #32
	retab
	.cfi_endproc
                                        ; -- End function
	.globl	__ZN11SnakeSenzia4Core5Sound9StopSoundEv ; -- Begin function _ZN11SnakeSenzia4Core5Sound9StopSoundEv
	.p2align	2
__ZN11SnakeSenzia4Core5Sound9StopSoundEv: ; @_ZN11SnakeSenzia4Core5Sound9StopSoundEv
	.cfi_startproc
; %bb.0:
	sub	sp, sp, #16
	.cfi_def_cfa_offset 16
	str	x0, [sp, #8]
	add	sp, sp, #16
	ret
	.cfi_endproc
                                        ; -- End function
	.globl	__ZN11SnakeSenzia4Menu15displayMainMenuEi ; -- Begin function _ZN11SnakeSenzia4Menu15displayMainMenuEi
	.p2align	2
__ZN11SnakeSenzia4Menu15displayMainMenuEi: ; @_ZN11SnakeSenzia4Menu15displayMainMenuEi
	.cfi_startproc
; %bb.0:
	pacibsp
	sub	sp, sp, #48
	.cfi_def_cfa_offset 48
	stp	x29, x30, [sp, #32]             ; 16-byte Folded Spill
	add	x29, sp, #32
	.cfi_def_cfa w29, 16
	.cfi_offset w30, -8
	.cfi_offset w29, -16
	str	x0, [sp, #16]
	str	w1, [sp, #12]
	adrp	x0, __ZNSt3__14coutE@GOTPAGE
	ldr	x0, [x0, __ZNSt3__14coutE@GOTPAGEOFF]
	adrp	x1, __ZL17ANSI_CLEAR_SCREEN@PAGE
	add	x1, x1, __ZL17ANSI_CLEAR_SCREEN@PAGEOFF
	bl	__ZNSt3__1lsIcNS_11char_traitsIcEENS_9allocatorIcEEEERNS_13basic_ostreamIT_T0_EES9_RKNS_12basic_stringIS6_S7_T1_EE
	ldur	w0, [x29, #-4]
	ldp	x29, x30, [sp, #32]             ; 16-byte Folded Reload
	add	sp, sp, #48
	retab
	.cfi_endproc
                                        ; -- End function
	.globl	__ZN11SnakeSenzia4Core17detectConsoleSizeEv ; -- Begin function _ZN11SnakeSenzia4Core17detectConsoleSizeEv
	.p2align	2
__ZN11SnakeSenzia4Core17detectConsoleSizeEv: ; @_ZN11SnakeSenzia4Core17detectConsoleSizeEv
	.cfi_startproc
; %bb.0:
	pacibsp
	sub	sp, sp, #64
	.cfi_def_cfa_offset 64
	stp	x29, x30, [sp, #48]             ; 16-byte Folded Spill
	add	x29, sp, #48
	.cfi_def_cfa w29, 16
	.cfi_offset w30, -8
	.cfi_offset w29, -16
	stur	x0, [x29, #-8]
	mov	x9, sp
	sub	x8, x29, #16
	str	x8, [x9]
	mov	w0, #1
	mov	x1, #29800
	movk	x1, #16392, lsl #16
	bl	_ioctl
	mov	x0, #8
	bl	__Znam
	str	x0, [sp, #24]
	ldurh	w8, [x29, #-14]
	ldr	x9, [sp, #24]
	str	w8, [x9]
	ldurh	w8, [x29, #-16]
	ldr	x9, [sp, #24]
	str	w8, [x9, #4]
	adrp	x8, _context@PAGE
	ldr	x8, [x8, _context@PAGEOFF]
	ldr	x0, [x8, #56]
	ldr	x1, [sp, #24]
	bl	__ZN11SnakeSenzia6Config7setSizeEPi
	ldr	x8, [sp, #24]
	str	x8, [sp, #16]                   ; 8-byte Folded Spill
	subs	x8, x8, #0
	cset	w8, eq
	tbnz	w8, #0, LBB50_2
	b	LBB50_1
LBB50_1:
	ldr	x0, [sp, #16]                   ; 8-byte Folded Reload
	bl	__ZdlPv
	b	LBB50_2
LBB50_2:
                                        ; kill: def $x8 killed $xzr
	str	xzr, [sp, #24]
	ldp	x29, x30, [sp, #48]             ; 16-byte Folded Reload
	add	sp, sp, #64
	retab
	.cfi_endproc
                                        ; -- End function
	.globl	__ZN11SnakeSenzia6Config7setSizeEPi ; -- Begin function _ZN11SnakeSenzia6Config7setSizeEPi
	.weak_definition	__ZN11SnakeSenzia6Config7setSizeEPi
	.p2align	2
__ZN11SnakeSenzia6Config7setSizeEPi:    ; @_ZN11SnakeSenzia6Config7setSizeEPi
	.cfi_startproc
; %bb.0:
	sub	sp, sp, #16
	.cfi_def_cfa_offset 16
	str	x0, [sp, #8]
	str	x1, [sp]
	ldr	x9, [sp, #8]
	ldr	x8, [sp]
	ldr	w8, [x8]
	ldr	x10, [x9]
	str	w8, [x10]
	ldr	x8, [sp]
	ldr	w8, [x8, #4]
	ldr	x9, [x9]
	str	w8, [x9, #4]
	add	sp, sp, #16
	ret
	.cfi_endproc
                                        ; -- End function
	.globl	__ZN11SnakeSenzia4Core10FileSystem19GetCurrentDirectoryEv ; -- Begin function _ZN11SnakeSenzia4Core10FileSystem19GetCurrentDirectoryEv
	.p2align	2
__ZN11SnakeSenzia4Core10FileSystem19GetCurrentDirectoryEv: ; @_ZN11SnakeSenzia4Core10FileSystem19GetCurrentDirectoryEv
Lfunc_begin6:
	.cfi_startproc
	.cfi_personality 155, ___gxx_personality_v0
	.cfi_lsda 16, Lexception6
; %bb.0:
	pacibsp
	sub	sp, sp, #96
	.cfi_def_cfa_offset 96
	stp	x29, x30, [sp, #80]             ; 16-byte Folded Spill
	add	x29, sp, #80
	.cfi_def_cfa w29, 16
	.cfi_offset w30, -8
	.cfi_offset w29, -16
	str	x8, [sp, #8]                    ; 8-byte Folded Spill
	stur	x8, [x29, #-8]
	stur	x0, [x29, #-16]
	add	x8, sp, #40
	str	x8, [sp, #16]                   ; 8-byte Folded Spill
	bl	__ZNSt3__14__fs10filesystem12current_pathB6v15006Ev
	ldr	x8, [sp, #8]                    ; 8-byte Folded Reload
	ldr	x0, [sp, #16]                   ; 8-byte Folded Reload
Ltmp275:
	bl	__ZNKSt3__14__fs10filesystem4path6stringB6v15006Ev
Ltmp276:
	b	LBB52_1
LBB52_1:
	add	x0, sp, #40
	bl	__ZNSt3__14__fs10filesystem4pathD1B6v15006Ev
	ldp	x29, x30, [sp, #80]             ; 16-byte Folded Reload
	add	sp, sp, #96
	retab
LBB52_2:
Ltmp277:
	mov	x8, x1
	str	x0, [sp, #32]
	str	w8, [sp, #28]
	add	x0, sp, #40
	bl	__ZNSt3__14__fs10filesystem4pathD1B6v15006Ev
	b	LBB52_3
LBB52_3:
	ldr	x0, [sp, #32]
	bl	__Unwind_Resume
Lfunc_end6:
	.cfi_endproc
	.section	__TEXT,__gcc_except_tab
	.p2align	2
GCC_except_table52:
Lexception6:
	.byte	255                             ; @LPStart Encoding = omit
	.byte	255                             ; @TType Encoding = omit
	.byte	1                               ; Call site Encoding = uleb128
	.uleb128 Lcst_end6-Lcst_begin6
Lcst_begin6:
	.uleb128 Lfunc_begin6-Lfunc_begin6      ; >> Call Site 1 <<
	.uleb128 Ltmp275-Lfunc_begin6           ;   Call between Lfunc_begin6 and Ltmp275
	.byte	0                               ;     has no landing pad
	.byte	0                               ;   On action: cleanup
	.uleb128 Ltmp275-Lfunc_begin6           ; >> Call Site 2 <<
	.uleb128 Ltmp276-Ltmp275                ;   Call between Ltmp275 and Ltmp276
	.uleb128 Ltmp277-Lfunc_begin6           ;     jumps to Ltmp277
	.byte	0                               ;   On action: cleanup
	.uleb128 Ltmp276-Lfunc_begin6           ; >> Call Site 3 <<
	.uleb128 Lfunc_end6-Ltmp276             ;   Call between Ltmp276 and Lfunc_end6
	.byte	0                               ;     has no landing pad
	.byte	0                               ;   On action: cleanup
Lcst_end6:
	.p2align	2
                                        ; -- End function
	.section	__TEXT,__text,regular,pure_instructions
	.private_extern	__ZNSt3__14__fs10filesystem12current_pathB6v15006Ev ; -- Begin function _ZNSt3__14__fs10filesystem12current_pathB6v15006Ev
	.globl	__ZNSt3__14__fs10filesystem12current_pathB6v15006Ev
	.weak_definition	__ZNSt3__14__fs10filesystem12current_pathB6v15006Ev
	.p2align	2
__ZNSt3__14__fs10filesystem12current_pathB6v15006Ev: ; @_ZNSt3__14__fs10filesystem12current_pathB6v15006Ev
	.cfi_startproc
; %bb.0:
	pacibsp
	sub	sp, sp, #32
	.cfi_def_cfa_offset 32
	stp	x29, x30, [sp, #16]             ; 16-byte Folded Spill
	add	x29, sp, #16
	.cfi_def_cfa w29, 16
	.cfi_offset w30, -8
	.cfi_offset w29, -16
	mov	x9, x8
	str	x9, [sp, #8]
	mov	x0, #0
	bl	__ZNSt3__14__fs10filesystem14__current_pathEPNS_10error_codeE
	ldp	x29, x30, [sp, #16]             ; 16-byte Folded Reload
	add	sp, sp, #32
	retab
	.cfi_endproc
                                        ; -- End function
	.private_extern	__ZNKSt3__14__fs10filesystem4path6stringB6v15006Ev ; -- Begin function _ZNKSt3__14__fs10filesystem4path6stringB6v15006Ev
	.globl	__ZNKSt3__14__fs10filesystem4path6stringB6v15006Ev
	.weak_definition	__ZNKSt3__14__fs10filesystem4path6stringB6v15006Ev
	.p2align	2
__ZNKSt3__14__fs10filesystem4path6stringB6v15006Ev: ; @_ZNKSt3__14__fs10filesystem4path6stringB6v15006Ev
	.cfi_startproc
; %bb.0:
	pacibsp
	sub	sp, sp, #48
	.cfi_def_cfa_offset 48
	stp	x29, x30, [sp, #32]             ; 16-byte Folded Spill
	add	x29, sp, #32
	.cfi_def_cfa w29, 16
	.cfi_offset w30, -8
	.cfi_offset w29, -16
	str	x8, [sp, #8]                    ; 8-byte Folded Spill
	mov	x8, x0
	ldr	x0, [sp, #8]                    ; 8-byte Folded Reload
	mov	x9, x0
	stur	x9, [x29, #-8]
	str	x8, [sp, #16]
	ldr	x1, [sp, #16]
	bl	__ZNSt3__112basic_stringIcNS_11char_traitsIcEENS_9allocatorIcEEEC1ERKS5_
	ldp	x29, x30, [sp, #32]             ; 16-byte Folded Reload
	add	sp, sp, #48
	retab
	.cfi_endproc
                                        ; -- End function
	.private_extern	__ZNSt3__14__fs10filesystem4pathD1B6v15006Ev ; -- Begin function _ZNSt3__14__fs10filesystem4pathD1B6v15006Ev
	.globl	__ZNSt3__14__fs10filesystem4pathD1B6v15006Ev
	.weak_def_can_be_hidden	__ZNSt3__14__fs10filesystem4pathD1B6v15006Ev
	.p2align	2
__ZNSt3__14__fs10filesystem4pathD1B6v15006Ev: ; @_ZNSt3__14__fs10filesystem4pathD1B6v15006Ev
	.cfi_startproc
; %bb.0:
	pacibsp
	sub	sp, sp, #32
	.cfi_def_cfa_offset 32
	stp	x29, x30, [sp, #16]             ; 16-byte Folded Spill
	add	x29, sp, #16
	.cfi_def_cfa w29, 16
	.cfi_offset w30, -8
	.cfi_offset w29, -16
	str	x0, [sp, #8]
	ldr	x0, [sp, #8]
	str	x0, [sp]                        ; 8-byte Folded Spill
	bl	__ZNSt3__14__fs10filesystem4pathD2B6v15006Ev
	ldr	x0, [sp]                        ; 8-byte Folded Reload
	ldp	x29, x30, [sp, #16]             ; 16-byte Folded Reload
	add	sp, sp, #32
	retab
	.cfi_endproc
                                        ; -- End function
	.globl	__ZN11SnakeSenzia4Core11execCommandEPKc ; -- Begin function _ZN11SnakeSenzia4Core11execCommandEPKc
	.p2align	2
__ZN11SnakeSenzia4Core11execCommandEPKc: ; @_ZN11SnakeSenzia4Core11execCommandEPKc
Lfunc_begin7:
	.cfi_startproc
	.cfi_personality 155, ___gxx_personality_v0
	.cfi_lsda 16, Lexception7
; %bb.0:
	pacibsp
	stp	x28, x27, [sp, #-32]!           ; 16-byte Folded Spill
	.cfi_def_cfa_offset 32
	stp	x29, x30, [sp, #16]             ; 16-byte Folded Spill
	add	x29, sp, #16
	.cfi_def_cfa w29, 16
	.cfi_offset w30, -8
	.cfi_offset w29, -16
	.cfi_offset w27, -24
	.cfi_offset w28, -32
	sub	sp, sp, #800
	add	x9, sp, #256
	str	x9, [sp, #72]                   ; 8-byte Folded Spill
	mov	x9, x8
	ldr	x8, [sp, #72]                   ; 8-byte Folded Reload
	str	x9, [sp, #56]                   ; 8-byte Folded Spill
                                        ; implicit-def: $x16
                                        ; implicit-def: $x17
	adrp	x16, _pclose@GOTPAGE
	ldr	x16, [x16, _pclose@GOTPAGEOFF]
	paciza	x16
	str	x16, [sp, #64]                  ; 8-byte Folded Spill
	adrp	x10, ___stack_chk_guard@GOTPAGE
	ldr	x10, [x10, ___stack_chk_guard@GOTPAGEOFF]
	ldr	x10, [x10]
	stur	x10, [x29, #-24]
	str	x9, [x8, #16]
	str	x0, [x8, #8]
	str	x1, [x8]
	add	x0, sp, #232
	adrp	x1, l_.str.42@PAGE
	add	x1, x1, l_.str.42@PAGEOFF
	bl	__ZNSt3__112basic_stringIcNS_11char_traitsIcEENS_9allocatorIcEEEC1B6v15006IDnEEPKc
	ldr	x8, [sp, #72]                   ; 8-byte Folded Reload
	ldr	x0, [x8]
Ltmp278:
	adrp	x1, l_.str.43@PAGE
	add	x1, x1, l_.str.43@PAGEOFF
	bl	_popen
	str	x0, [sp, #80]                   ; 8-byte Folded Spill
Ltmp279:
	b	LBB56_1
LBB56_1:
	ldr	x1, [sp, #80]                   ; 8-byte Folded Reload
	ldr	x8, [sp, #64]                   ; 8-byte Folded Reload
	add	x2, sp, #192
	str	x8, [sp, #192]
	add	x0, sp, #216
	str	x0, [sp, #48]                   ; 8-byte Folded Spill
	bl	__ZNSt3__110unique_ptrI7__sFILEPFiPS1_EEC1B6v15006ILb1EvEES2_NS_16__dependent_typeINS_27__unique_ptr_deleter_sfinaeIS4_EEXT_EE20__good_rval_ref_typeE
	ldr	x0, [sp, #48]                   ; 8-byte Folded Reload
	bl	__ZNKSt3__110unique_ptrI7__sFILEPFiPS1_EEcvbB6v15006Ev
	tbnz	w0, #0, LBB56_18
	b	LBB56_2
LBB56_2:
	adrp	x8, _context@PAGE
	ldr	x8, [x8, _context@PAGEOFF]
	ldr	x8, [x8, #16]
	str	x8, [sp, #40]                   ; 8-byte Folded Spill
Ltmp281:
	add	x0, sp, #168
	adrp	x1, l_.str.44@PAGE
	add	x1, x1, l_.str.44@PAGEOFF
	bl	__ZNSt3__112basic_stringIcNS_11char_traitsIcEENS_9allocatorIcEEEC1B6v15006IDnEEPKc
Ltmp282:
	b	LBB56_3
LBB56_3:
Ltmp283:
	add	x0, sp, #144
	adrp	x1, l_.str.45@PAGE
	add	x1, x1, l_.str.45@PAGEOFF
	bl	__ZNSt3__112basic_stringIcNS_11char_traitsIcEENS_9allocatorIcEEEC1B6v15006IDnEEPKc
Ltmp284:
	b	LBB56_4
LBB56_4:
	ldr	x0, [sp, #40]                   ; 8-byte Folded Reload
	adrp	x8, _context@PAGE
	ldr	x8, [x8, _context@PAGEOFF]
	ldr	x3, [x8, #24]
Ltmp286:
	add	x1, sp, #168
	add	x2, sp, #144
	bl	__ZN11SnakeSenzia7Logging8printLogENSt3__112basic_stringIcNS1_11char_traitsIcEENS1_9allocatorIcEEEES7_PNS_5TimerE
Ltmp287:
	b	LBB56_5
LBB56_5:
	add	x0, sp, #144
	bl	__ZNSt3__112basic_stringIcNS_11char_traitsIcEENS_9allocatorIcEEED1Ev
	add	x0, sp, #168
	bl	__ZNSt3__112basic_stringIcNS_11char_traitsIcEENS_9allocatorIcEEED1Ev
	adrp	x8, _context@PAGE
	ldr	x8, [x8, _context@PAGEOFF]
	ldr	x8, [x8, #16]
	str	x8, [sp, #32]                   ; 8-byte Folded Spill
Ltmp289:
	add	x0, sp, #120
	adrp	x1, l_.str.44@PAGE
	add	x1, x1, l_.str.44@PAGEOFF
	bl	__ZNSt3__112basic_stringIcNS_11char_traitsIcEENS_9allocatorIcEEEC1B6v15006IDnEEPKc
Ltmp290:
	b	LBB56_6
LBB56_6:
Ltmp291:
	add	x0, sp, #96
	adrp	x1, l_.str.46@PAGE
	add	x1, x1, l_.str.46@PAGEOFF
	bl	__ZNSt3__112basic_stringIcNS_11char_traitsIcEENS_9allocatorIcEEEC1B6v15006IDnEEPKc
Ltmp292:
	b	LBB56_7
LBB56_7:
	ldr	x0, [sp, #32]                   ; 8-byte Folded Reload
	adrp	x8, _context@PAGE
	ldr	x8, [x8, _context@PAGEOFF]
	ldr	x3, [x8, #24]
Ltmp294:
	add	x1, sp, #120
	add	x2, sp, #96
	bl	__ZN11SnakeSenzia7Logging8printLogENSt3__112basic_stringIcNS1_11char_traitsIcEENS1_9allocatorIcEEEES7_PNS_5TimerE
Ltmp295:
	b	LBB56_8
LBB56_8:
	add	x0, sp, #96
	bl	__ZNSt3__112basic_stringIcNS_11char_traitsIcEENS_9allocatorIcEEED1Ev
	add	x0, sp, #120
	bl	__ZNSt3__112basic_stringIcNS_11char_traitsIcEENS_9allocatorIcEEED1Ev
	ldr	x0, [sp, #56]                   ; 8-byte Folded Reload
Ltmp297:
	adrp	x1, l_.str.42@PAGE
	add	x1, x1, l_.str.42@PAGEOFF
	bl	__ZNSt3__112basic_stringIcNS_11char_traitsIcEENS_9allocatorIcEEEC1B6v15006IDnEEPKc
Ltmp298:
	b	LBB56_9
LBB56_9:
	mov	w8, #1
	str	w8, [sp, #92]
	b	LBB56_24
LBB56_10:
Ltmp280:
	mov	x8, x1
	str	x0, [sp, #208]
	str	w8, [sp, #204]
	b	LBB56_28
LBB56_11:
Ltmp303:
	mov	x8, x1
	str	x0, [sp, #208]
	str	w8, [sp, #204]
	b	LBB56_27
LBB56_12:
Ltmp285:
	mov	x8, x1
	str	x0, [sp, #208]
	str	w8, [sp, #204]
	b	LBB56_14
LBB56_13:
Ltmp288:
	mov	x8, x1
	str	x0, [sp, #208]
	str	w8, [sp, #204]
	add	x0, sp, #144
	bl	__ZNSt3__112basic_stringIcNS_11char_traitsIcEENS_9allocatorIcEEED1Ev
	b	LBB56_14
LBB56_14:
	add	x0, sp, #168
	bl	__ZNSt3__112basic_stringIcNS_11char_traitsIcEENS_9allocatorIcEEED1Ev
	b	LBB56_27
LBB56_15:
Ltmp293:
	mov	x8, x1
	str	x0, [sp, #208]
	str	w8, [sp, #204]
	b	LBB56_17
LBB56_16:
Ltmp296:
	mov	x8, x1
	str	x0, [sp, #208]
	str	w8, [sp, #204]
	add	x0, sp, #96
	bl	__ZNSt3__112basic_stringIcNS_11char_traitsIcEENS_9allocatorIcEEED1Ev
	b	LBB56_17
LBB56_17:
	add	x0, sp, #120
	bl	__ZNSt3__112basic_stringIcNS_11char_traitsIcEENS_9allocatorIcEEED1Ev
	b	LBB56_27
LBB56_18:
	b	LBB56_19
LBB56_19:                               ; =>This Inner Loop Header: Depth=1
	add	x0, sp, #280
	str	x0, [sp]                        ; 8-byte Folded Spill
	bl	__ZNSt3__15arrayIcLm512EE4dataB6v15006Ev
	mov	x1, x0
	ldr	x0, [sp]                        ; 8-byte Folded Reload
	str	x1, [sp, #16]                   ; 8-byte Folded Spill
	bl	__ZNKSt3__15arrayIcLm512EE4sizeB6v15006Ev
	mov	x8, x0
	str	w8, [sp, #12]                   ; 4-byte Folded Spill
	add	x0, sp, #216
	bl	__ZNKSt3__110unique_ptrI7__sFILEPFiPS1_EE3getB6v15006Ev
	ldr	w1, [sp, #12]                   ; 4-byte Folded Reload
	mov	x2, x0
	ldr	x0, [sp, #16]                   ; 8-byte Folded Reload
Ltmp299:
	bl	_fgets
	str	x0, [sp, #24]                   ; 8-byte Folded Spill
Ltmp300:
	b	LBB56_20
LBB56_20:                               ;   in Loop: Header=BB56_19 Depth=1
	ldr	x8, [sp, #24]                   ; 8-byte Folded Reload
	subs	x8, x8, #0
	cset	w8, eq
	tbnz	w8, #0, LBB56_23
	b	LBB56_21
LBB56_21:                               ;   in Loop: Header=BB56_19 Depth=1
	add	x0, sp, #280
	bl	__ZNSt3__15arrayIcLm512EE4dataB6v15006Ev
	mov	x1, x0
Ltmp301:
	add	x0, sp, #232
	bl	__ZNSt3__112basic_stringIcNS_11char_traitsIcEENS_9allocatorIcEEEpLB6v15006EPKc
Ltmp302:
	b	LBB56_22
LBB56_22:                               ;   in Loop: Header=BB56_19 Depth=1
	b	LBB56_19
LBB56_23:
	ldr	x0, [sp, #56]                   ; 8-byte Folded Reload
	add	x1, sp, #232
	bl	__ZNSt3__112basic_stringIcNS_11char_traitsIcEENS_9allocatorIcEEEC1B6v15006EOS5_
	mov	w8, #1
	str	w8, [sp, #92]
	b	LBB56_24
LBB56_24:
	add	x0, sp, #216
	bl	__ZNSt3__110unique_ptrI7__sFILEPFiPS1_EED1B6v15006Ev
	add	x0, sp, #232
	bl	__ZNSt3__112basic_stringIcNS_11char_traitsIcEENS_9allocatorIcEEED1Ev
	ldur	x9, [x29, #-24]
	adrp	x8, ___stack_chk_guard@GOTPAGE
	ldr	x8, [x8, ___stack_chk_guard@GOTPAGEOFF]
	ldr	x8, [x8]
	subs	x8, x8, x9
	cset	w8, eq
	tbnz	w8, #0, LBB56_26
	b	LBB56_25
LBB56_25:
	bl	___stack_chk_fail
LBB56_26:
	add	sp, sp, #800
	ldp	x29, x30, [sp, #16]             ; 16-byte Folded Reload
	ldp	x28, x27, [sp], #32             ; 16-byte Folded Reload
	retab
LBB56_27:
	add	x0, sp, #216
	bl	__ZNSt3__110unique_ptrI7__sFILEPFiPS1_EED1B6v15006Ev
	b	LBB56_28
LBB56_28:
	add	x0, sp, #232
	bl	__ZNSt3__112basic_stringIcNS_11char_traitsIcEENS_9allocatorIcEEED1Ev
	b	LBB56_29
LBB56_29:
	ldr	x0, [sp, #208]
	bl	__Unwind_Resume
Lfunc_end7:
	.cfi_endproc
	.section	__TEXT,__gcc_except_tab
	.p2align	2
GCC_except_table56:
Lexception7:
	.byte	255                             ; @LPStart Encoding = omit
	.byte	255                             ; @TType Encoding = omit
	.byte	1                               ; Call site Encoding = uleb128
	.uleb128 Lcst_end7-Lcst_begin7
Lcst_begin7:
	.uleb128 Lfunc_begin7-Lfunc_begin7      ; >> Call Site 1 <<
	.uleb128 Ltmp278-Lfunc_begin7           ;   Call between Lfunc_begin7 and Ltmp278
	.byte	0                               ;     has no landing pad
	.byte	0                               ;   On action: cleanup
	.uleb128 Ltmp278-Lfunc_begin7           ; >> Call Site 2 <<
	.uleb128 Ltmp279-Ltmp278                ;   Call between Ltmp278 and Ltmp279
	.uleb128 Ltmp280-Lfunc_begin7           ;     jumps to Ltmp280
	.byte	0                               ;   On action: cleanup
	.uleb128 Ltmp281-Lfunc_begin7           ; >> Call Site 3 <<
	.uleb128 Ltmp282-Ltmp281                ;   Call between Ltmp281 and Ltmp282
	.uleb128 Ltmp303-Lfunc_begin7           ;     jumps to Ltmp303
	.byte	0                               ;   On action: cleanup
	.uleb128 Ltmp283-Lfunc_begin7           ; >> Call Site 4 <<
	.uleb128 Ltmp284-Ltmp283                ;   Call between Ltmp283 and Ltmp284
	.uleb128 Ltmp285-Lfunc_begin7           ;     jumps to Ltmp285
	.byte	0                               ;   On action: cleanup
	.uleb128 Ltmp286-Lfunc_begin7           ; >> Call Site 5 <<
	.uleb128 Ltmp287-Ltmp286                ;   Call between Ltmp286 and Ltmp287
	.uleb128 Ltmp288-Lfunc_begin7           ;     jumps to Ltmp288
	.byte	0                               ;   On action: cleanup
	.uleb128 Ltmp289-Lfunc_begin7           ; >> Call Site 6 <<
	.uleb128 Ltmp290-Ltmp289                ;   Call between Ltmp289 and Ltmp290
	.uleb128 Ltmp303-Lfunc_begin7           ;     jumps to Ltmp303
	.byte	0                               ;   On action: cleanup
	.uleb128 Ltmp291-Lfunc_begin7           ; >> Call Site 7 <<
	.uleb128 Ltmp292-Ltmp291                ;   Call between Ltmp291 and Ltmp292
	.uleb128 Ltmp293-Lfunc_begin7           ;     jumps to Ltmp293
	.byte	0                               ;   On action: cleanup
	.uleb128 Ltmp294-Lfunc_begin7           ; >> Call Site 8 <<
	.uleb128 Ltmp295-Ltmp294                ;   Call between Ltmp294 and Ltmp295
	.uleb128 Ltmp296-Lfunc_begin7           ;     jumps to Ltmp296
	.byte	0                               ;   On action: cleanup
	.uleb128 Ltmp297-Lfunc_begin7           ; >> Call Site 9 <<
	.uleb128 Ltmp302-Ltmp297                ;   Call between Ltmp297 and Ltmp302
	.uleb128 Ltmp303-Lfunc_begin7           ;     jumps to Ltmp303
	.byte	0                               ;   On action: cleanup
	.uleb128 Ltmp302-Lfunc_begin7           ; >> Call Site 10 <<
	.uleb128 Lfunc_end7-Ltmp302             ;   Call between Ltmp302 and Lfunc_end7
	.byte	0                               ;     has no landing pad
	.byte	0                               ;   On action: cleanup
Lcst_end7:
	.p2align	2
                                        ; -- End function
	.section	__TEXT,__text,regular,pure_instructions
	.globl	__ZNSt3__110unique_ptrI7__sFILEPFiPS1_EEC1B6v15006ILb1EvEES2_NS_16__dependent_typeINS_27__unique_ptr_deleter_sfinaeIS4_EEXT_EE20__good_rval_ref_typeE ; -- Begin function _ZNSt3__110unique_ptrI7__sFILEPFiPS1_EEC1B6v15006ILb1EvEES2_NS_16__dependent_typeINS_27__unique_ptr_deleter_sfinaeIS4_EEXT_EE20__good_rval_ref_typeE
	.weak_def_can_be_hidden	__ZNSt3__110unique_ptrI7__sFILEPFiPS1_EEC1B6v15006ILb1EvEES2_NS_16__dependent_typeINS_27__unique_ptr_deleter_sfinaeIS4_EEXT_EE20__good_rval_ref_typeE
	.p2align	2
__ZNSt3__110unique_ptrI7__sFILEPFiPS1_EEC1B6v15006ILb1EvEES2_NS_16__dependent_typeINS_27__unique_ptr_deleter_sfinaeIS4_EEXT_EE20__good_rval_ref_typeE: ; @_ZNSt3__110unique_ptrI7__sFILEPFiPS1_EEC1B6v15006ILb1EvEES2_NS_16__dependent_typeINS_27__unique_ptr_deleter_sfinaeIS4_EEXT_EE20__good_rval_ref_typeE
	.cfi_startproc
; %bb.0:
	pacibsp
	sub	sp, sp, #48
	.cfi_def_cfa_offset 48
	stp	x29, x30, [sp, #32]             ; 16-byte Folded Spill
	add	x29, sp, #32
	.cfi_def_cfa w29, 16
	.cfi_offset w30, -8
	.cfi_offset w29, -16
	stur	x0, [x29, #-8]
	str	x1, [sp, #16]
	str	x2, [sp, #8]
	ldur	x0, [x29, #-8]
	str	x0, [sp]                        ; 8-byte Folded Spill
	ldr	x1, [sp, #16]
	ldr	x2, [sp, #8]
	bl	__ZNSt3__110unique_ptrI7__sFILEPFiPS1_EEC2B6v15006ILb1EvEES2_NS_16__dependent_typeINS_27__unique_ptr_deleter_sfinaeIS4_EEXT_EE20__good_rval_ref_typeE
	ldr	x0, [sp]                        ; 8-byte Folded Reload
	ldp	x29, x30, [sp, #32]             ; 16-byte Folded Reload
	add	sp, sp, #48
	retab
	.cfi_endproc
                                        ; -- End function
	.private_extern	__ZNKSt3__110unique_ptrI7__sFILEPFiPS1_EEcvbB6v15006Ev ; -- Begin function _ZNKSt3__110unique_ptrI7__sFILEPFiPS1_EEcvbB6v15006Ev
	.globl	__ZNKSt3__110unique_ptrI7__sFILEPFiPS1_EEcvbB6v15006Ev
	.weak_definition	__ZNKSt3__110unique_ptrI7__sFILEPFiPS1_EEcvbB6v15006Ev
	.p2align	2
__ZNKSt3__110unique_ptrI7__sFILEPFiPS1_EEcvbB6v15006Ev: ; @_ZNKSt3__110unique_ptrI7__sFILEPFiPS1_EEcvbB6v15006Ev
	.cfi_startproc
; %bb.0:
	pacibsp
	sub	sp, sp, #32
	.cfi_def_cfa_offset 32
	stp	x29, x30, [sp, #16]             ; 16-byte Folded Spill
	add	x29, sp, #16
	.cfi_def_cfa w29, 16
	.cfi_offset w30, -8
	.cfi_offset w29, -16
	str	x0, [sp, #8]
	ldr	x0, [sp, #8]
	bl	__ZNKSt3__117__compressed_pairIP7__sFILEPFiS2_EE5firstB6v15006Ev
	ldr	x8, [x0]
	subs	x8, x8, #0
	cset	w8, ne
	and	w0, w8, #0x1
	ldp	x29, x30, [sp, #16]             ; 16-byte Folded Reload
	add	sp, sp, #32
	retab
	.cfi_endproc
                                        ; -- End function
	.private_extern	__ZNSt3__15arrayIcLm512EE4dataB6v15006Ev ; -- Begin function _ZNSt3__15arrayIcLm512EE4dataB6v15006Ev
	.globl	__ZNSt3__15arrayIcLm512EE4dataB6v15006Ev
	.weak_definition	__ZNSt3__15arrayIcLm512EE4dataB6v15006Ev
	.p2align	2
__ZNSt3__15arrayIcLm512EE4dataB6v15006Ev: ; @_ZNSt3__15arrayIcLm512EE4dataB6v15006Ev
	.cfi_startproc
; %bb.0:
	sub	sp, sp, #16
	.cfi_def_cfa_offset 16
	str	x0, [sp, #8]
	ldr	x0, [sp, #8]
	add	sp, sp, #16
	ret
	.cfi_endproc
                                        ; -- End function
	.private_extern	__ZNKSt3__15arrayIcLm512EE4sizeB6v15006Ev ; -- Begin function _ZNKSt3__15arrayIcLm512EE4sizeB6v15006Ev
	.globl	__ZNKSt3__15arrayIcLm512EE4sizeB6v15006Ev
	.weak_definition	__ZNKSt3__15arrayIcLm512EE4sizeB6v15006Ev
	.p2align	2
__ZNKSt3__15arrayIcLm512EE4sizeB6v15006Ev: ; @_ZNKSt3__15arrayIcLm512EE4sizeB6v15006Ev
	.cfi_startproc
; %bb.0:
	sub	sp, sp, #16
	.cfi_def_cfa_offset 16
	str	x0, [sp, #8]
	mov	x0, #512
	add	sp, sp, #16
	ret
	.cfi_endproc
                                        ; -- End function
	.private_extern	__ZNKSt3__110unique_ptrI7__sFILEPFiPS1_EE3getB6v15006Ev ; -- Begin function _ZNKSt3__110unique_ptrI7__sFILEPFiPS1_EE3getB6v15006Ev
	.globl	__ZNKSt3__110unique_ptrI7__sFILEPFiPS1_EE3getB6v15006Ev
	.weak_definition	__ZNKSt3__110unique_ptrI7__sFILEPFiPS1_EE3getB6v15006Ev
	.p2align	2
__ZNKSt3__110unique_ptrI7__sFILEPFiPS1_EE3getB6v15006Ev: ; @_ZNKSt3__110unique_ptrI7__sFILEPFiPS1_EE3getB6v15006Ev
	.cfi_startproc
; %bb.0:
	pacibsp
	sub	sp, sp, #32
	.cfi_def_cfa_offset 32
	stp	x29, x30, [sp, #16]             ; 16-byte Folded Spill
	add	x29, sp, #16
	.cfi_def_cfa w29, 16
	.cfi_offset w30, -8
	.cfi_offset w29, -16
	str	x0, [sp, #8]
	ldr	x0, [sp, #8]
	bl	__ZNKSt3__117__compressed_pairIP7__sFILEPFiS2_EE5firstB6v15006Ev
	ldr	x0, [x0]
	ldp	x29, x30, [sp, #16]             ; 16-byte Folded Reload
	add	sp, sp, #32
	retab
	.cfi_endproc
                                        ; -- End function
	.private_extern	__ZNSt3__112basic_stringIcNS_11char_traitsIcEENS_9allocatorIcEEEpLB6v15006EPKc ; -- Begin function _ZNSt3__112basic_stringIcNS_11char_traitsIcEENS_9allocatorIcEEEpLB6v15006EPKc
	.globl	__ZNSt3__112basic_stringIcNS_11char_traitsIcEENS_9allocatorIcEEEpLB6v15006EPKc
	.weak_definition	__ZNSt3__112basic_stringIcNS_11char_traitsIcEENS_9allocatorIcEEEpLB6v15006EPKc
	.p2align	2
__ZNSt3__112basic_stringIcNS_11char_traitsIcEENS_9allocatorIcEEEpLB6v15006EPKc: ; @_ZNSt3__112basic_stringIcNS_11char_traitsIcEENS_9allocatorIcEEEpLB6v15006EPKc
	.cfi_startproc
; %bb.0:
	pacibsp
	sub	sp, sp, #32
	.cfi_def_cfa_offset 32
	stp	x29, x30, [sp, #16]             ; 16-byte Folded Spill
	add	x29, sp, #16
	.cfi_def_cfa w29, 16
	.cfi_offset w30, -8
	.cfi_offset w29, -16
	str	x0, [sp, #8]
	str	x1, [sp]
	ldr	x0, [sp, #8]
	ldr	x1, [sp]
	bl	__ZNSt3__112basic_stringIcNS_11char_traitsIcEENS_9allocatorIcEEE6appendEPKc
	ldp	x29, x30, [sp, #16]             ; 16-byte Folded Reload
	add	sp, sp, #32
	retab
	.cfi_endproc
                                        ; -- End function
	.private_extern	__ZNSt3__112basic_stringIcNS_11char_traitsIcEENS_9allocatorIcEEEC1B6v15006EOS5_ ; -- Begin function _ZNSt3__112basic_stringIcNS_11char_traitsIcEENS_9allocatorIcEEEC1B6v15006EOS5_
	.globl	__ZNSt3__112basic_stringIcNS_11char_traitsIcEENS_9allocatorIcEEEC1B6v15006EOS5_
	.weak_def_can_be_hidden	__ZNSt3__112basic_stringIcNS_11char_traitsIcEENS_9allocatorIcEEEC1B6v15006EOS5_
	.p2align	2
__ZNSt3__112basic_stringIcNS_11char_traitsIcEENS_9allocatorIcEEEC1B6v15006EOS5_: ; @_ZNSt3__112basic_stringIcNS_11char_traitsIcEENS_9allocatorIcEEEC1B6v15006EOS5_
	.cfi_startproc
; %bb.0:
	pacibsp
	sub	sp, sp, #48
	.cfi_def_cfa_offset 48
	stp	x29, x30, [sp, #32]             ; 16-byte Folded Spill
	add	x29, sp, #32
	.cfi_def_cfa w29, 16
	.cfi_offset w30, -8
	.cfi_offset w29, -16
	stur	x0, [x29, #-8]
	str	x1, [sp, #16]
	ldur	x0, [x29, #-8]
	str	x0, [sp, #8]                    ; 8-byte Folded Spill
	ldr	x1, [sp, #16]
	bl	__ZNSt3__112basic_stringIcNS_11char_traitsIcEENS_9allocatorIcEEEC2B6v15006EOS5_
	ldr	x0, [sp, #8]                    ; 8-byte Folded Reload
	ldp	x29, x30, [sp, #32]             ; 16-byte Folded Reload
	add	sp, sp, #48
	retab
	.cfi_endproc
                                        ; -- End function
	.private_extern	__ZNSt3__110unique_ptrI7__sFILEPFiPS1_EED1B6v15006Ev ; -- Begin function _ZNSt3__110unique_ptrI7__sFILEPFiPS1_EED1B6v15006Ev
	.globl	__ZNSt3__110unique_ptrI7__sFILEPFiPS1_EED1B6v15006Ev
	.weak_def_can_be_hidden	__ZNSt3__110unique_ptrI7__sFILEPFiPS1_EED1B6v15006Ev
	.p2align	2
__ZNSt3__110unique_ptrI7__sFILEPFiPS1_EED1B6v15006Ev: ; @_ZNSt3__110unique_ptrI7__sFILEPFiPS1_EED1B6v15006Ev
	.cfi_startproc
; %bb.0:
	pacibsp
	sub	sp, sp, #32
	.cfi_def_cfa_offset 32
	stp	x29, x30, [sp, #16]             ; 16-byte Folded Spill
	add	x29, sp, #16
	.cfi_def_cfa w29, 16
	.cfi_offset w30, -8
	.cfi_offset w29, -16
	str	x0, [sp, #8]
	ldr	x0, [sp, #8]
	str	x0, [sp]                        ; 8-byte Folded Spill
	bl	__ZNSt3__110unique_ptrI7__sFILEPFiPS1_EED2B6v15006Ev
	ldr	x0, [sp]                        ; 8-byte Folded Reload
	ldp	x29, x30, [sp, #16]             ; 16-byte Folded Reload
	add	sp, sp, #32
	retab
	.cfi_endproc
                                        ; -- End function
	.globl	__ZN11SnakeSenzia4Core10initializeEv ; -- Begin function _ZN11SnakeSenzia4Core10initializeEv
	.p2align	2
__ZN11SnakeSenzia4Core10initializeEv:   ; @_ZN11SnakeSenzia4Core10initializeEv
Lfunc_begin8:
	.cfi_startproc
	.cfi_personality 155, ___gxx_personality_v0
	.cfi_lsda 16, Lexception8
; %bb.0:
	pacibsp
	stp	x28, x27, [sp, #-32]!           ; 16-byte Folded Spill
	.cfi_def_cfa_offset 32
	stp	x29, x30, [sp, #16]             ; 16-byte Folded Spill
	add	x29, sp, #16
	.cfi_def_cfa w29, 16
	.cfi_offset w30, -8
	.cfi_offset w29, -16
	.cfi_offset w27, -24
	.cfi_offset w28, -32
	sub	sp, sp, #592
	stur	x0, [x29, #-24]
	adrp	x8, _context@PAGE
	ldr	x8, [x8, _context@PAGEOFF]
	ldr	x8, [x8, #16]
	str	x8, [sp, #104]                  ; 8-byte Folded Spill
	sub	x0, x29, #48
	adrp	x1, l_.str.44@PAGE
	add	x1, x1, l_.str.44@PAGEOFF
	bl	__ZNSt3__112basic_stringIcNS_11char_traitsIcEENS_9allocatorIcEEEC1B6v15006IDnEEPKc
Ltmp306:
	sub	x0, x29, #72
	adrp	x1, l_.str.47@PAGE
	add	x1, x1, l_.str.47@PAGEOFF
	bl	__ZNSt3__112basic_stringIcNS_11char_traitsIcEENS_9allocatorIcEEEC1B6v15006IDnEEPKc
Ltmp307:
	b	LBB65_1
LBB65_1:
	ldr	x0, [sp, #104]                  ; 8-byte Folded Reload
	adrp	x8, _context@PAGE
	ldr	x8, [x8, _context@PAGEOFF]
	ldr	x3, [x8, #24]
Ltmp309:
	sub	x1, x29, #48
	sub	x2, x29, #72
	bl	__ZN11SnakeSenzia7Logging8printLogENSt3__112basic_stringIcNS1_11char_traitsIcEENS1_9allocatorIcEEEES7_PNS_5TimerE
Ltmp310:
	b	LBB65_2
LBB65_2:
	sub	x0, x29, #72
	bl	__ZNSt3__112basic_stringIcNS_11char_traitsIcEENS_9allocatorIcEEED1Ev
	sub	x0, x29, #48
	bl	__ZNSt3__112basic_stringIcNS_11char_traitsIcEENS_9allocatorIcEEED1Ev
	adrp	x8, _context@PAGE
	ldr	x8, [x8, _context@PAGEOFF]
	ldr	x8, [x8, #16]
	str	x8, [sp, #96]                   ; 8-byte Folded Spill
	sub	x0, x29, #112
	adrp	x1, l_.str.48@PAGE
	add	x1, x1, l_.str.48@PAGEOFF
	bl	__ZNSt3__112basic_stringIwNS_11char_traitsIwEENS_9allocatorIwEEEC1B6v15006IDnEEPKw
	adrp	x8, _WCHAR_UNICODE_COPYRIGHT_SYMBOL@PAGE
	ldr	x1, [x8, _WCHAR_UNICODE_COPYRIGHT_SYMBOL@PAGEOFF]
Ltmp312:
	sub	x0, x29, #184
	bl	__ZNSt3__112basic_stringIwNS_11char_traitsIwEENS_9allocatorIwEEEC1B6v15006IDnEEPKw
Ltmp313:
	b	LBB65_3
LBB65_3:
Ltmp315:
	sub	x8, x29, #160
	adrp	x0, l_.str.49@PAGE
	add	x0, x0, l_.str.49@PAGEOFF
	sub	x1, x29, #184
	bl	__ZNSt3__1plB6v15006IwNS_11char_traitsIwEENS_9allocatorIwEEEENS_12basic_stringIT_T0_T1_EEPKS6_OS9_
Ltmp316:
	b	LBB65_4
LBB65_4:
Ltmp318:
	sub	x8, x29, #136
	sub	x0, x29, #160
	adrp	x1, l_.str.50@PAGE
	add	x1, x1, l_.str.50@PAGEOFF
	bl	__ZNSt3__1plB6v15006IwNS_11char_traitsIwEENS_9allocatorIwEEEENS_12basic_stringIT_T0_T1_EEOS9_PKS6_
Ltmp319:
	b	LBB65_5
LBB65_5:
	ldr	x0, [sp, #96]                   ; 8-byte Folded Reload
	adrp	x8, _context@PAGE
	ldr	x8, [x8, _context@PAGEOFF]
	ldr	x3, [x8, #24]
Ltmp321:
	sub	x1, x29, #112
	sub	x2, x29, #136
	bl	__ZN11SnakeSenzia7Logging15printLogWStringENSt3__112basic_stringIwNS1_11char_traitsIwEENS1_9allocatorIwEEEES7_PNS_5TimerE
Ltmp322:
	b	LBB65_6
LBB65_6:
	sub	x0, x29, #136
	bl	__ZNSt3__112basic_stringIwNS_11char_traitsIwEENS_9allocatorIwEEED1Ev
	sub	x0, x29, #160
	bl	__ZNSt3__112basic_stringIwNS_11char_traitsIwEENS_9allocatorIwEEED1Ev
	sub	x0, x29, #184
	bl	__ZNSt3__112basic_stringIwNS_11char_traitsIwEENS_9allocatorIwEEED1Ev
	sub	x0, x29, #112
	bl	__ZNSt3__112basic_stringIwNS_11char_traitsIwEENS_9allocatorIwEEED1Ev
	adrp	x8, _context@PAGE
	ldr	x8, [x8, _context@PAGEOFF]
	ldr	x8, [x8, #16]
	str	x8, [sp, #88]                   ; 8-byte Folded Spill
	sub	x0, x29, #208
	adrp	x1, l_.str.44@PAGE
	add	x1, x1, l_.str.44@PAGEOFF
	bl	__ZNSt3__112basic_stringIcNS_11char_traitsIcEENS_9allocatorIcEEEC1B6v15006IDnEEPKc
Ltmp324:
	sub	x0, x29, #232
	adrp	x1, l_.str.51@PAGE
	add	x1, x1, l_.str.51@PAGEOFF
	bl	__ZNSt3__112basic_stringIcNS_11char_traitsIcEENS_9allocatorIcEEEC1B6v15006IDnEEPKc
Ltmp325:
	b	LBB65_7
LBB65_7:
	ldr	x0, [sp, #88]                   ; 8-byte Folded Reload
	adrp	x8, _context@PAGE
	ldr	x8, [x8, _context@PAGEOFF]
	ldr	x3, [x8, #24]
Ltmp327:
	sub	x1, x29, #208
	sub	x2, x29, #232
	bl	__ZN11SnakeSenzia7Logging8printLogENSt3__112basic_stringIcNS1_11char_traitsIcEENS1_9allocatorIcEEEES7_PNS_5TimerE
Ltmp328:
	b	LBB65_8
LBB65_8:
	sub	x0, x29, #232
	bl	__ZNSt3__112basic_stringIcNS_11char_traitsIcEENS_9allocatorIcEEED1Ev
	sub	x0, x29, #208
	bl	__ZNSt3__112basic_stringIcNS_11char_traitsIcEENS_9allocatorIcEEED1Ev
	adrp	x8, _context@PAGE
	ldr	x8, [x8, _context@PAGEOFF]
	ldr	x0, [x8, #8]
	sub	x8, x29, #256
	str	x8, [sp, #72]                   ; 8-byte Folded Spill
	adrp	x1, l_.str.52@PAGE
	add	x1, x1, l_.str.52@PAGEOFF
	bl	__ZN11SnakeSenzia4Core11execCommandEPKc
	ldr	x0, [sp, #72]                   ; 8-byte Folded Reload
	adrp	x1, l_.str.42@PAGE
	add	x1, x1, l_.str.42@PAGEOFF
	bl	__ZNSt3__1eqB6v15006IcNS_11char_traitsIcEENS_9allocatorIcEEEEbRKNS_12basic_stringIT_T0_T1_EEPKS6_
	mov	x8, x0
	ldr	x0, [sp, #72]                   ; 8-byte Folded Reload
	str	w8, [sp, #84]                   ; 4-byte Folded Spill
	bl	__ZNSt3__112basic_stringIcNS_11char_traitsIcEENS_9allocatorIcEEED1Ev
	ldr	w0, [sp, #84]                   ; 4-byte Folded Reload
	tbz	w0, #0, LBB65_33
	b	LBB65_9
LBB65_9:
	adrp	x8, _context@PAGE
	ldr	x8, [x8, _context@PAGEOFF]
	ldr	x8, [x8, #16]
	str	x8, [sp, #64]                   ; 8-byte Folded Spill
	add	x0, sp, #328
	adrp	x1, l_.str.44@PAGE
	add	x1, x1, l_.str.44@PAGEOFF
	bl	__ZNSt3__112basic_stringIcNS_11char_traitsIcEENS_9allocatorIcEEEC1B6v15006IDnEEPKc
Ltmp339:
	add	x0, sp, #304
	adrp	x1, l_.str.45@PAGE
	add	x1, x1, l_.str.45@PAGEOFF
	bl	__ZNSt3__112basic_stringIcNS_11char_traitsIcEENS_9allocatorIcEEEC1B6v15006IDnEEPKc
Ltmp340:
	b	LBB65_10
LBB65_10:
	ldr	x0, [sp, #64]                   ; 8-byte Folded Reload
	adrp	x8, _context@PAGE
	ldr	x8, [x8, _context@PAGEOFF]
	ldr	x3, [x8, #24]
Ltmp342:
	add	x1, sp, #328
	add	x2, sp, #304
	bl	__ZN11SnakeSenzia7Logging8printLogENSt3__112basic_stringIcNS1_11char_traitsIcEENS1_9allocatorIcEEEES7_PNS_5TimerE
Ltmp343:
	b	LBB65_11
LBB65_11:
	add	x0, sp, #304
	bl	__ZNSt3__112basic_stringIcNS_11char_traitsIcEENS_9allocatorIcEEED1Ev
	add	x0, sp, #328
	bl	__ZNSt3__112basic_stringIcNS_11char_traitsIcEENS_9allocatorIcEEED1Ev
	adrp	x8, _context@PAGE
	ldr	x8, [x8, _context@PAGEOFF]
	ldr	x8, [x8, #16]
	str	x8, [sp, #56]                   ; 8-byte Folded Spill
	add	x0, sp, #280
	adrp	x1, l_.str.44@PAGE
	add	x1, x1, l_.str.44@PAGEOFF
	bl	__ZNSt3__112basic_stringIcNS_11char_traitsIcEENS_9allocatorIcEEEC1B6v15006IDnEEPKc
Ltmp345:
	add	x0, sp, #256
	adrp	x1, l_.str.46@PAGE
	add	x1, x1, l_.str.46@PAGEOFF
	bl	__ZNSt3__112basic_stringIcNS_11char_traitsIcEENS_9allocatorIcEEEC1B6v15006IDnEEPKc
Ltmp346:
	b	LBB65_12
LBB65_12:
	ldr	x0, [sp, #56]                   ; 8-byte Folded Reload
	adrp	x8, _context@PAGE
	ldr	x8, [x8, _context@PAGEOFF]
	ldr	x3, [x8, #24]
Ltmp348:
	add	x1, sp, #280
	add	x2, sp, #256
	bl	__ZN11SnakeSenzia7Logging8printLogENSt3__112basic_stringIcNS1_11char_traitsIcEENS1_9allocatorIcEEEES7_PNS_5TimerE
Ltmp349:
	b	LBB65_13
LBB65_13:
	add	x0, sp, #256
	bl	__ZNSt3__112basic_stringIcNS_11char_traitsIcEENS_9allocatorIcEEED1Ev
	add	x0, sp, #280
	bl	__ZNSt3__112basic_stringIcNS_11char_traitsIcEENS_9allocatorIcEEED1Ev
	b	LBB65_42
LBB65_14:
Ltmp308:
	mov	x8, x1
	stur	x0, [x29, #-80]
	stur	w8, [x29, #-84]
	b	LBB65_16
LBB65_15:
Ltmp311:
	mov	x8, x1
	stur	x0, [x29, #-80]
	stur	w8, [x29, #-84]
	sub	x0, x29, #72
	bl	__ZNSt3__112basic_stringIcNS_11char_traitsIcEENS_9allocatorIcEEED1Ev
	b	LBB65_16
LBB65_16:
	sub	x0, x29, #48
	bl	__ZNSt3__112basic_stringIcNS_11char_traitsIcEENS_9allocatorIcEEED1Ev
	b	LBB65_51
LBB65_17:
Ltmp314:
	mov	x8, x1
	stur	x0, [x29, #-80]
	stur	w8, [x29, #-84]
	b	LBB65_23
LBB65_18:
Ltmp317:
	mov	x8, x1
	stur	x0, [x29, #-80]
	stur	w8, [x29, #-84]
	b	LBB65_22
LBB65_19:
Ltmp320:
	mov	x8, x1
	stur	x0, [x29, #-80]
	stur	w8, [x29, #-84]
	b	LBB65_21
LBB65_20:
Ltmp323:
	mov	x8, x1
	stur	x0, [x29, #-80]
	stur	w8, [x29, #-84]
	sub	x0, x29, #136
	bl	__ZNSt3__112basic_stringIwNS_11char_traitsIwEENS_9allocatorIwEEED1Ev
	b	LBB65_21
LBB65_21:
	sub	x0, x29, #160
	bl	__ZNSt3__112basic_stringIwNS_11char_traitsIwEENS_9allocatorIwEEED1Ev
	b	LBB65_22
LBB65_22:
	sub	x0, x29, #184
	bl	__ZNSt3__112basic_stringIwNS_11char_traitsIwEENS_9allocatorIwEEED1Ev
	b	LBB65_23
LBB65_23:
	sub	x0, x29, #112
	bl	__ZNSt3__112basic_stringIwNS_11char_traitsIwEENS_9allocatorIwEEED1Ev
	b	LBB65_51
LBB65_24:
Ltmp326:
	mov	x8, x1
	stur	x0, [x29, #-80]
	stur	w8, [x29, #-84]
	b	LBB65_26
LBB65_25:
Ltmp329:
	mov	x8, x1
	stur	x0, [x29, #-80]
	stur	w8, [x29, #-84]
	sub	x0, x29, #232
	bl	__ZNSt3__112basic_stringIcNS_11char_traitsIcEENS_9allocatorIcEEED1Ev
	b	LBB65_26
LBB65_26:
	sub	x0, x29, #208
	bl	__ZNSt3__112basic_stringIcNS_11char_traitsIcEENS_9allocatorIcEEED1Ev
	b	LBB65_51
LBB65_27:
Ltmp341:
	mov	x8, x1
	stur	x0, [x29, #-80]
	stur	w8, [x29, #-84]
	b	LBB65_29
LBB65_28:
Ltmp344:
	mov	x8, x1
	stur	x0, [x29, #-80]
	stur	w8, [x29, #-84]
	add	x0, sp, #304
	bl	__ZNSt3__112basic_stringIcNS_11char_traitsIcEENS_9allocatorIcEEED1Ev
	b	LBB65_29
LBB65_29:
	add	x0, sp, #328
	bl	__ZNSt3__112basic_stringIcNS_11char_traitsIcEENS_9allocatorIcEEED1Ev
	b	LBB65_51
LBB65_30:
Ltmp347:
	mov	x8, x1
	stur	x0, [x29, #-80]
	stur	w8, [x29, #-84]
	b	LBB65_32
LBB65_31:
Ltmp350:
	mov	x8, x1
	stur	x0, [x29, #-80]
	stur	w8, [x29, #-84]
	add	x0, sp, #256
	bl	__ZNSt3__112basic_stringIcNS_11char_traitsIcEENS_9allocatorIcEEED1Ev
	b	LBB65_32
LBB65_32:
	add	x0, sp, #280
	bl	__ZNSt3__112basic_stringIcNS_11char_traitsIcEENS_9allocatorIcEEED1Ev
	b	LBB65_51
LBB65_33:
	adrp	x8, _context@PAGE
	str	x8, [sp, #48]                   ; 8-byte Folded Spill
	ldr	x8, [x8, _context@PAGEOFF]
	ldr	x8, [x8, #16]
	str	x8, [sp, #40]                   ; 8-byte Folded Spill
	add	x0, sp, #232
	adrp	x1, l_.str.44@PAGE
	add	x1, x1, l_.str.44@PAGEOFF
	bl	__ZNSt3__112basic_stringIcNS_11char_traitsIcEENS_9allocatorIcEEEC1B6v15006IDnEEPKc
	ldr	x8, [sp, #48]                   ; 8-byte Folded Reload
	ldr	x8, [x8, _context@PAGEOFF]
	ldr	x0, [x8, #8]
Ltmp330:
	add	x8, sp, #184
	adrp	x1, l_.str.52@PAGE
	add	x1, x1, l_.str.52@PAGEOFF
	bl	__ZN11SnakeSenzia4Core11execCommandEPKc
Ltmp331:
	b	LBB65_34
LBB65_34:
Ltmp333:
	add	x8, sp, #208
	adrp	x0, l_.str.53@PAGE
	add	x0, x0, l_.str.53@PAGEOFF
	add	x1, sp, #184
	bl	__ZNSt3__1plB6v15006IcNS_11char_traitsIcEENS_9allocatorIcEEEENS_12basic_stringIT_T0_T1_EEPKS6_OS9_
Ltmp334:
	b	LBB65_35
LBB65_35:
	ldr	x0, [sp, #40]                   ; 8-byte Folded Reload
	adrp	x8, _context@PAGE
	ldr	x8, [x8, _context@PAGEOFF]
	ldr	x3, [x8, #24]
Ltmp336:
	add	x1, sp, #232
	add	x2, sp, #208
	bl	__ZN11SnakeSenzia7Logging8printLogENSt3__112basic_stringIcNS1_11char_traitsIcEENS1_9allocatorIcEEEES7_PNS_5TimerE
Ltmp337:
	b	LBB65_36
LBB65_36:
	add	x0, sp, #208
	bl	__ZNSt3__112basic_stringIcNS_11char_traitsIcEENS_9allocatorIcEEED1Ev
	add	x0, sp, #184
	bl	__ZNSt3__112basic_stringIcNS_11char_traitsIcEENS_9allocatorIcEEED1Ev
	add	x0, sp, #232
	bl	__ZNSt3__112basic_stringIcNS_11char_traitsIcEENS_9allocatorIcEEED1Ev
	b	LBB65_42
LBB65_37:
Ltmp332:
	mov	x8, x1
	stur	x0, [x29, #-80]
	stur	w8, [x29, #-84]
	b	LBB65_41
LBB65_38:
Ltmp335:
	mov	x8, x1
	stur	x0, [x29, #-80]
	stur	w8, [x29, #-84]
	b	LBB65_40
LBB65_39:
Ltmp338:
	mov	x8, x1
	stur	x0, [x29, #-80]
	stur	w8, [x29, #-84]
	add	x0, sp, #208
	bl	__ZNSt3__112basic_stringIcNS_11char_traitsIcEENS_9allocatorIcEEED1Ev
	b	LBB65_40
LBB65_40:
	add	x0, sp, #184
	bl	__ZNSt3__112basic_stringIcNS_11char_traitsIcEENS_9allocatorIcEEED1Ev
	b	LBB65_41
LBB65_41:
	add	x0, sp, #232
	bl	__ZNSt3__112basic_stringIcNS_11char_traitsIcEENS_9allocatorIcEEED1Ev
	b	LBB65_51
LBB65_42:
	adrp	x8, _context@PAGE
	str	x8, [sp, #32]                   ; 8-byte Folded Spill
	ldr	x8, [x8, _context@PAGEOFF]
	ldr	x8, [x8, #16]
	str	x8, [sp, #24]                   ; 8-byte Folded Spill
	add	x0, sp, #160
	adrp	x1, l_.str.44@PAGE
	add	x1, x1, l_.str.44@PAGEOFF
	bl	__ZNSt3__112basic_stringIcNS_11char_traitsIcEENS_9allocatorIcEEEC1B6v15006IDnEEPKc
	ldr	x8, [sp, #32]                   ; 8-byte Folded Reload
	ldr	x8, [x8, _context@PAGEOFF]
	ldr	x0, [x8, #40]
Ltmp351:
	add	x8, sp, #112
	bl	__ZN11SnakeSenzia4Core10FileSystem19GetCurrentDirectoryEv
Ltmp352:
	b	LBB65_43
LBB65_43:
Ltmp354:
	add	x8, sp, #136
	adrp	x0, l_.str.54@PAGE
	add	x0, x0, l_.str.54@PAGEOFF
	add	x1, sp, #112
	bl	__ZNSt3__1plB6v15006IcNS_11char_traitsIcEENS_9allocatorIcEEEENS_12basic_stringIT_T0_T1_EEPKS6_OS9_
Ltmp355:
	b	LBB65_44
LBB65_44:
	ldr	x0, [sp, #24]                   ; 8-byte Folded Reload
	adrp	x8, _context@PAGE
	ldr	x8, [x8, _context@PAGEOFF]
	ldr	x3, [x8, #24]
Ltmp357:
	add	x1, sp, #160
	add	x2, sp, #136
	bl	__ZN11SnakeSenzia7Logging8printLogENSt3__112basic_stringIcNS1_11char_traitsIcEENS1_9allocatorIcEEEES7_PNS_5TimerE
Ltmp358:
	b	LBB65_45
LBB65_45:
	add	x0, sp, #136
	bl	__ZNSt3__112basic_stringIcNS_11char_traitsIcEENS_9allocatorIcEEED1Ev
	add	x0, sp, #112
	bl	__ZNSt3__112basic_stringIcNS_11char_traitsIcEENS_9allocatorIcEEED1Ev
	add	x0, sp, #160
	bl	__ZNSt3__112basic_stringIcNS_11char_traitsIcEENS_9allocatorIcEEED1Ev
	bl	_initscr
	bl	_start_color
	mov	w0, #1
	str	w0, [sp, #20]                   ; 4-byte Folded Spill
	mov	w1, #3
	mov	w2, #6
	bl	_init_pair
	bl	_cbreak
	bl	_noecho
	adrp	x8, _stdscr@GOTPAGE
	ldr	x8, [x8, _stdscr@GOTPAGEOFF]
	str	x8, [sp, #8]                    ; 8-byte Folded Spill
	ldr	x0, [x8]
	mov	w8, #0
	and	w1, w8, #0x1
	bl	_intrflush
	ldr	x9, [sp, #8]                    ; 8-byte Folded Reload
	ldr	w8, [sp, #20]                   ; 4-byte Folded Reload
	ldr	x0, [x9]
	and	w1, w8, #0x1
	bl	_keypad
	mov	w0, #0
	bl	_curs_set
	add	sp, sp, #592
	ldp	x29, x30, [sp, #16]             ; 16-byte Folded Reload
	ldp	x28, x27, [sp], #32             ; 16-byte Folded Reload
	retab
LBB65_46:
Ltmp353:
	mov	x8, x1
	stur	x0, [x29, #-80]
	stur	w8, [x29, #-84]
	b	LBB65_50
LBB65_47:
Ltmp356:
	mov	x8, x1
	stur	x0, [x29, #-80]
	stur	w8, [x29, #-84]
	b	LBB65_49
LBB65_48:
Ltmp359:
	mov	x8, x1
	stur	x0, [x29, #-80]
	stur	w8, [x29, #-84]
	add	x0, sp, #136
	bl	__ZNSt3__112basic_stringIcNS_11char_traitsIcEENS_9allocatorIcEEED1Ev
	b	LBB65_49
LBB65_49:
	add	x0, sp, #112
	bl	__ZNSt3__112basic_stringIcNS_11char_traitsIcEENS_9allocatorIcEEED1Ev
	b	LBB65_50
LBB65_50:
	add	x0, sp, #160
	bl	__ZNSt3__112basic_stringIcNS_11char_traitsIcEENS_9allocatorIcEEED1Ev
	b	LBB65_51
LBB65_51:
	ldur	x0, [x29, #-80]
	bl	__Unwind_Resume
Lfunc_end8:
	.cfi_endproc
	.section	__TEXT,__gcc_except_tab
	.p2align	2
GCC_except_table65:
Lexception8:
	.byte	255                             ; @LPStart Encoding = omit
	.byte	255                             ; @TType Encoding = omit
	.byte	1                               ; Call site Encoding = uleb128
	.uleb128 Lcst_end8-Lcst_begin8
Lcst_begin8:
	.uleb128 Lfunc_begin8-Lfunc_begin8      ; >> Call Site 1 <<
	.uleb128 Ltmp306-Lfunc_begin8           ;   Call between Lfunc_begin8 and Ltmp306
	.byte	0                               ;     has no landing pad
	.byte	0                               ;   On action: cleanup
	.uleb128 Ltmp306-Lfunc_begin8           ; >> Call Site 2 <<
	.uleb128 Ltmp307-Ltmp306                ;   Call between Ltmp306 and Ltmp307
	.uleb128 Ltmp308-Lfunc_begin8           ;     jumps to Ltmp308
	.byte	0                               ;   On action: cleanup
	.uleb128 Ltmp309-Lfunc_begin8           ; >> Call Site 3 <<
	.uleb128 Ltmp310-Ltmp309                ;   Call between Ltmp309 and Ltmp310
	.uleb128 Ltmp311-Lfunc_begin8           ;     jumps to Ltmp311
	.byte	0                               ;   On action: cleanup
	.uleb128 Ltmp310-Lfunc_begin8           ; >> Call Site 4 <<
	.uleb128 Ltmp312-Ltmp310                ;   Call between Ltmp310 and Ltmp312
	.byte	0                               ;     has no landing pad
	.byte	0                               ;   On action: cleanup
	.uleb128 Ltmp312-Lfunc_begin8           ; >> Call Site 5 <<
	.uleb128 Ltmp313-Ltmp312                ;   Call between Ltmp312 and Ltmp313
	.uleb128 Ltmp314-Lfunc_begin8           ;     jumps to Ltmp314
	.byte	0                               ;   On action: cleanup
	.uleb128 Ltmp315-Lfunc_begin8           ; >> Call Site 6 <<
	.uleb128 Ltmp316-Ltmp315                ;   Call between Ltmp315 and Ltmp316
	.uleb128 Ltmp317-Lfunc_begin8           ;     jumps to Ltmp317
	.byte	0                               ;   On action: cleanup
	.uleb128 Ltmp318-Lfunc_begin8           ; >> Call Site 7 <<
	.uleb128 Ltmp319-Ltmp318                ;   Call between Ltmp318 and Ltmp319
	.uleb128 Ltmp320-Lfunc_begin8           ;     jumps to Ltmp320
	.byte	0                               ;   On action: cleanup
	.uleb128 Ltmp321-Lfunc_begin8           ; >> Call Site 8 <<
	.uleb128 Ltmp322-Ltmp321                ;   Call between Ltmp321 and Ltmp322
	.uleb128 Ltmp323-Lfunc_begin8           ;     jumps to Ltmp323
	.byte	0                               ;   On action: cleanup
	.uleb128 Ltmp322-Lfunc_begin8           ; >> Call Site 9 <<
	.uleb128 Ltmp324-Ltmp322                ;   Call between Ltmp322 and Ltmp324
	.byte	0                               ;     has no landing pad
	.byte	0                               ;   On action: cleanup
	.uleb128 Ltmp324-Lfunc_begin8           ; >> Call Site 10 <<
	.uleb128 Ltmp325-Ltmp324                ;   Call between Ltmp324 and Ltmp325
	.uleb128 Ltmp326-Lfunc_begin8           ;     jumps to Ltmp326
	.byte	0                               ;   On action: cleanup
	.uleb128 Ltmp327-Lfunc_begin8           ; >> Call Site 11 <<
	.uleb128 Ltmp328-Ltmp327                ;   Call between Ltmp327 and Ltmp328
	.uleb128 Ltmp329-Lfunc_begin8           ;     jumps to Ltmp329
	.byte	0                               ;   On action: cleanup
	.uleb128 Ltmp328-Lfunc_begin8           ; >> Call Site 12 <<
	.uleb128 Ltmp339-Ltmp328                ;   Call between Ltmp328 and Ltmp339
	.byte	0                               ;     has no landing pad
	.byte	0                               ;   On action: cleanup
	.uleb128 Ltmp339-Lfunc_begin8           ; >> Call Site 13 <<
	.uleb128 Ltmp340-Ltmp339                ;   Call between Ltmp339 and Ltmp340
	.uleb128 Ltmp341-Lfunc_begin8           ;     jumps to Ltmp341
	.byte	0                               ;   On action: cleanup
	.uleb128 Ltmp342-Lfunc_begin8           ; >> Call Site 14 <<
	.uleb128 Ltmp343-Ltmp342                ;   Call between Ltmp342 and Ltmp343
	.uleb128 Ltmp344-Lfunc_begin8           ;     jumps to Ltmp344
	.byte	0                               ;   On action: cleanup
	.uleb128 Ltmp343-Lfunc_begin8           ; >> Call Site 15 <<
	.uleb128 Ltmp345-Ltmp343                ;   Call between Ltmp343 and Ltmp345
	.byte	0                               ;     has no landing pad
	.byte	0                               ;   On action: cleanup
	.uleb128 Ltmp345-Lfunc_begin8           ; >> Call Site 16 <<
	.uleb128 Ltmp346-Ltmp345                ;   Call between Ltmp345 and Ltmp346
	.uleb128 Ltmp347-Lfunc_begin8           ;     jumps to Ltmp347
	.byte	0                               ;   On action: cleanup
	.uleb128 Ltmp348-Lfunc_begin8           ; >> Call Site 17 <<
	.uleb128 Ltmp349-Ltmp348                ;   Call between Ltmp348 and Ltmp349
	.uleb128 Ltmp350-Lfunc_begin8           ;     jumps to Ltmp350
	.byte	0                               ;   On action: cleanup
	.uleb128 Ltmp349-Lfunc_begin8           ; >> Call Site 18 <<
	.uleb128 Ltmp330-Ltmp349                ;   Call between Ltmp349 and Ltmp330
	.byte	0                               ;     has no landing pad
	.byte	0                               ;   On action: cleanup
	.uleb128 Ltmp330-Lfunc_begin8           ; >> Call Site 19 <<
	.uleb128 Ltmp331-Ltmp330                ;   Call between Ltmp330 and Ltmp331
	.uleb128 Ltmp332-Lfunc_begin8           ;     jumps to Ltmp332
	.byte	0                               ;   On action: cleanup
	.uleb128 Ltmp333-Lfunc_begin8           ; >> Call Site 20 <<
	.uleb128 Ltmp334-Ltmp333                ;   Call between Ltmp333 and Ltmp334
	.uleb128 Ltmp335-Lfunc_begin8           ;     jumps to Ltmp335
	.byte	0                               ;   On action: cleanup
	.uleb128 Ltmp336-Lfunc_begin8           ; >> Call Site 21 <<
	.uleb128 Ltmp337-Ltmp336                ;   Call between Ltmp336 and Ltmp337
	.uleb128 Ltmp338-Lfunc_begin8           ;     jumps to Ltmp338
	.byte	0                               ;   On action: cleanup
	.uleb128 Ltmp337-Lfunc_begin8           ; >> Call Site 22 <<
	.uleb128 Ltmp351-Ltmp337                ;   Call between Ltmp337 and Ltmp351
	.byte	0                               ;     has no landing pad
	.byte	0                               ;   On action: cleanup
	.uleb128 Ltmp351-Lfunc_begin8           ; >> Call Site 23 <<
	.uleb128 Ltmp352-Ltmp351                ;   Call between Ltmp351 and Ltmp352
	.uleb128 Ltmp353-Lfunc_begin8           ;     jumps to Ltmp353
	.byte	0                               ;   On action: cleanup
	.uleb128 Ltmp354-Lfunc_begin8           ; >> Call Site 24 <<
	.uleb128 Ltmp355-Ltmp354                ;   Call between Ltmp354 and Ltmp355
	.uleb128 Ltmp356-Lfunc_begin8           ;     jumps to Ltmp356
	.byte	0                               ;   On action: cleanup
	.uleb128 Ltmp357-Lfunc_begin8           ; >> Call Site 25 <<
	.uleb128 Ltmp358-Ltmp357                ;   Call between Ltmp357 and Ltmp358
	.uleb128 Ltmp359-Lfunc_begin8           ;     jumps to Ltmp359
	.byte	0                               ;   On action: cleanup
	.uleb128 Ltmp358-Lfunc_begin8           ; >> Call Site 26 <<
	.uleb128 Lfunc_end8-Ltmp358             ;   Call between Ltmp358 and Lfunc_end8
	.byte	0                               ;     has no landing pad
	.byte	0                               ;   On action: cleanup
Lcst_end8:
	.p2align	2
                                        ; -- End function
	.section	__TEXT,__text,regular,pure_instructions
	.globl	__ZNSt3__112basic_stringIwNS_11char_traitsIwEENS_9allocatorIwEEEC1B6v15006IDnEEPKw ; -- Begin function _ZNSt3__112basic_stringIwNS_11char_traitsIwEENS_9allocatorIwEEEC1B6v15006IDnEEPKw
	.weak_def_can_be_hidden	__ZNSt3__112basic_stringIwNS_11char_traitsIwEENS_9allocatorIwEEEC1B6v15006IDnEEPKw
	.p2align	2
__ZNSt3__112basic_stringIwNS_11char_traitsIwEENS_9allocatorIwEEEC1B6v15006IDnEEPKw: ; @_ZNSt3__112basic_stringIwNS_11char_traitsIwEENS_9allocatorIwEEEC1B6v15006IDnEEPKw
	.cfi_startproc
; %bb.0:
	pacibsp
	sub	sp, sp, #48
	.cfi_def_cfa_offset 48
	stp	x29, x30, [sp, #32]             ; 16-byte Folded Spill
	add	x29, sp, #32
	.cfi_def_cfa w29, 16
	.cfi_offset w30, -8
	.cfi_offset w29, -16
	stur	x0, [x29, #-8]
	str	x1, [sp, #16]
	ldur	x0, [x29, #-8]
	str	x0, [sp, #8]                    ; 8-byte Folded Spill
	ldr	x1, [sp, #16]
	bl	__ZNSt3__112basic_stringIwNS_11char_traitsIwEENS_9allocatorIwEEEC2B6v15006IDnEEPKw
	ldr	x0, [sp, #8]                    ; 8-byte Folded Reload
	ldp	x29, x30, [sp, #32]             ; 16-byte Folded Reload
	add	sp, sp, #48
	retab
	.cfi_endproc
                                        ; -- End function
	.private_extern	__ZNSt3__1plB6v15006IwNS_11char_traitsIwEENS_9allocatorIwEEEENS_12basic_stringIT_T0_T1_EEOS9_PKS6_ ; -- Begin function _ZNSt3__1plB6v15006IwNS_11char_traitsIwEENS_9allocatorIwEEEENS_12basic_stringIT_T0_T1_EEOS9_PKS6_
	.globl	__ZNSt3__1plB6v15006IwNS_11char_traitsIwEENS_9allocatorIwEEEENS_12basic_stringIT_T0_T1_EEOS9_PKS6_
	.weak_definition	__ZNSt3__1plB6v15006IwNS_11char_traitsIwEENS_9allocatorIwEEEENS_12basic_stringIT_T0_T1_EEOS9_PKS6_
	.p2align	2
__ZNSt3__1plB6v15006IwNS_11char_traitsIwEENS_9allocatorIwEEEENS_12basic_stringIT_T0_T1_EEOS9_PKS6_: ; @_ZNSt3__1plB6v15006IwNS_11char_traitsIwEENS_9allocatorIwEEEENS_12basic_stringIT_T0_T1_EEOS9_PKS6_
	.cfi_startproc
; %bb.0:
	pacibsp
	sub	sp, sp, #48
	.cfi_def_cfa_offset 48
	stp	x29, x30, [sp, #32]             ; 16-byte Folded Spill
	add	x29, sp, #32
	.cfi_def_cfa w29, 16
	.cfi_offset w30, -8
	.cfi_offset w29, -16
	str	x8, [sp]                        ; 8-byte Folded Spill
	stur	x8, [x29, #-8]
	str	x0, [sp, #16]
	str	x1, [sp, #8]
	ldr	x0, [sp, #16]
	ldr	x1, [sp, #8]
	bl	__ZNSt3__112basic_stringIwNS_11char_traitsIwEENS_9allocatorIwEEE6appendEPKw
	mov	x1, x0
	ldr	x0, [sp]                        ; 8-byte Folded Reload
	bl	__ZNSt3__112basic_stringIwNS_11char_traitsIwEENS_9allocatorIwEEEC1B6v15006EOS5_
	ldp	x29, x30, [sp, #32]             ; 16-byte Folded Reload
	add	sp, sp, #48
	retab
	.cfi_endproc
                                        ; -- End function
	.private_extern	__ZNSt3__1plB6v15006IwNS_11char_traitsIwEENS_9allocatorIwEEEENS_12basic_stringIT_T0_T1_EEPKS6_OS9_ ; -- Begin function _ZNSt3__1plB6v15006IwNS_11char_traitsIwEENS_9allocatorIwEEEENS_12basic_stringIT_T0_T1_EEPKS6_OS9_
	.globl	__ZNSt3__1plB6v15006IwNS_11char_traitsIwEENS_9allocatorIwEEEENS_12basic_stringIT_T0_T1_EEPKS6_OS9_
	.weak_definition	__ZNSt3__1plB6v15006IwNS_11char_traitsIwEENS_9allocatorIwEEEENS_12basic_stringIT_T0_T1_EEPKS6_OS9_
	.p2align	2
__ZNSt3__1plB6v15006IwNS_11char_traitsIwEENS_9allocatorIwEEEENS_12basic_stringIT_T0_T1_EEPKS6_OS9_: ; @_ZNSt3__1plB6v15006IwNS_11char_traitsIwEENS_9allocatorIwEEEENS_12basic_stringIT_T0_T1_EEPKS6_OS9_
	.cfi_startproc
; %bb.0:
	pacibsp
	sub	sp, sp, #48
	.cfi_def_cfa_offset 48
	stp	x29, x30, [sp, #32]             ; 16-byte Folded Spill
	add	x29, sp, #32
	.cfi_def_cfa w29, 16
	.cfi_offset w30, -8
	.cfi_offset w29, -16
	str	x8, [sp]                        ; 8-byte Folded Spill
	stur	x8, [x29, #-8]
	str	x0, [sp, #16]
	str	x1, [sp, #8]
	ldr	x0, [sp, #8]
	ldr	x2, [sp, #16]
	mov	x1, #0
	bl	__ZNSt3__112basic_stringIwNS_11char_traitsIwEENS_9allocatorIwEEE6insertEmPKw
	mov	x1, x0
	ldr	x0, [sp]                        ; 8-byte Folded Reload
	bl	__ZNSt3__112basic_stringIwNS_11char_traitsIwEENS_9allocatorIwEEEC1B6v15006EOS5_
	ldp	x29, x30, [sp, #32]             ; 16-byte Folded Reload
	add	sp, sp, #48
	retab
	.cfi_endproc
                                        ; -- End function
	.private_extern	__ZNSt3__1eqB6v15006IcNS_11char_traitsIcEENS_9allocatorIcEEEEbRKNS_12basic_stringIT_T0_T1_EEPKS6_ ; -- Begin function _ZNSt3__1eqB6v15006IcNS_11char_traitsIcEENS_9allocatorIcEEEEbRKNS_12basic_stringIT_T0_T1_EEPKS6_
	.globl	__ZNSt3__1eqB6v15006IcNS_11char_traitsIcEENS_9allocatorIcEEEEbRKNS_12basic_stringIT_T0_T1_EEPKS6_
	.weak_definition	__ZNSt3__1eqB6v15006IcNS_11char_traitsIcEENS_9allocatorIcEEEEbRKNS_12basic_stringIT_T0_T1_EEPKS6_
	.p2align	2
__ZNSt3__1eqB6v15006IcNS_11char_traitsIcEENS_9allocatorIcEEEEbRKNS_12basic_stringIT_T0_T1_EEPKS6_: ; @_ZNSt3__1eqB6v15006IcNS_11char_traitsIcEENS_9allocatorIcEEEEbRKNS_12basic_stringIT_T0_T1_EEPKS6_
Lfunc_begin9:
	.cfi_startproc
	.cfi_personality 155, ___gxx_personality_v0
	.cfi_lsda 16, Lexception9
; %bb.0:
	pacibsp
	sub	sp, sp, #64
	.cfi_def_cfa_offset 64
	stp	x29, x30, [sp, #48]             ; 16-byte Folded Spill
	add	x29, sp, #48
	.cfi_def_cfa w29, 16
	.cfi_offset w30, -8
	.cfi_offset w29, -16
	stur	x0, [x29, #-16]
	str	x1, [sp, #24]
	ldr	x0, [sp, #24]
	bl	__ZNSt3__111char_traitsIcE6lengthEPKc
	str	x0, [sp, #16]
	ldr	x8, [sp, #16]
	str	x8, [sp, #8]                    ; 8-byte Folded Spill
	ldur	x0, [x29, #-16]
	bl	__ZNKSt3__112basic_stringIcNS_11char_traitsIcEENS_9allocatorIcEEE4sizeB6v15006Ev
	ldr	x8, [sp, #8]                    ; 8-byte Folded Reload
	subs	x8, x8, x0
	cset	w8, eq
	tbnz	w8, #0, LBB69_2
	b	LBB69_1
LBB69_1:
	mov	w8, #0
	and	w8, w8, #0x1
	and	w8, w8, #0x1
	sturb	w8, [x29, #-1]
	b	LBB69_4
LBB69_2:
	ldur	x0, [x29, #-16]
	ldr	x3, [sp, #24]
	ldr	x4, [sp, #16]
Ltmp360:
	mov	x1, #0
	mov	x2, #-1
	bl	__ZNKSt3__112basic_stringIcNS_11char_traitsIcEENS_9allocatorIcEEE7compareEmmPKcm
	str	w0, [sp, #4]                    ; 4-byte Folded Spill
Ltmp361:
	b	LBB69_3
LBB69_3:
	ldr	w8, [sp, #4]                    ; 4-byte Folded Reload
	subs	w8, w8, #0
	cset	w8, eq
	and	w8, w8, #0x1
	and	w8, w8, #0x1
	sturb	w8, [x29, #-1]
	b	LBB69_4
LBB69_4:
	ldurb	w8, [x29, #-1]
	and	w0, w8, #0x1
	ldp	x29, x30, [sp, #48]             ; 16-byte Folded Reload
	add	sp, sp, #64
	retab
LBB69_5:
Ltmp362:
	bl	___clang_call_terminate
Lfunc_end9:
	.cfi_endproc
	.section	__TEXT,__gcc_except_tab
	.p2align	2
GCC_except_table69:
Lexception9:
	.byte	255                             ; @LPStart Encoding = omit
	.byte	155                             ; @TType Encoding = indirect pcrel sdata4
	.uleb128 Lttbase1-Lttbaseref1
Lttbaseref1:
	.byte	1                               ; Call site Encoding = uleb128
	.uleb128 Lcst_end9-Lcst_begin9
Lcst_begin9:
	.uleb128 Ltmp360-Lfunc_begin9           ; >> Call Site 1 <<
	.uleb128 Ltmp361-Ltmp360                ;   Call between Ltmp360 and Ltmp361
	.uleb128 Ltmp362-Lfunc_begin9           ;     jumps to Ltmp362
	.byte	1                               ;   On action: 1
Lcst_end9:
	.byte	1                               ; >> Action Record 1 <<
                                        ;   Catch TypeInfo 1
	.byte	0                               ;   No further actions
	.p2align	2
                                        ; >> Catch TypeInfos <<
	.long	0                               ; TypeInfo 1
Lttbase1:
	.p2align	2
                                        ; -- End function
	.section	__TEXT,__text,regular,pure_instructions
	.private_extern	__ZNSt3__1plB6v15006IcNS_11char_traitsIcEENS_9allocatorIcEEEENS_12basic_stringIT_T0_T1_EEPKS6_OS9_ ; -- Begin function _ZNSt3__1plB6v15006IcNS_11char_traitsIcEENS_9allocatorIcEEEENS_12basic_stringIT_T0_T1_EEPKS6_OS9_
	.globl	__ZNSt3__1plB6v15006IcNS_11char_traitsIcEENS_9allocatorIcEEEENS_12basic_stringIT_T0_T1_EEPKS6_OS9_
	.weak_definition	__ZNSt3__1plB6v15006IcNS_11char_traitsIcEENS_9allocatorIcEEEENS_12basic_stringIT_T0_T1_EEPKS6_OS9_
	.p2align	2
__ZNSt3__1plB6v15006IcNS_11char_traitsIcEENS_9allocatorIcEEEENS_12basic_stringIT_T0_T1_EEPKS6_OS9_: ; @_ZNSt3__1plB6v15006IcNS_11char_traitsIcEENS_9allocatorIcEEEENS_12basic_stringIT_T0_T1_EEPKS6_OS9_
	.cfi_startproc
; %bb.0:
	pacibsp
	sub	sp, sp, #48
	.cfi_def_cfa_offset 48
	stp	x29, x30, [sp, #32]             ; 16-byte Folded Spill
	add	x29, sp, #32
	.cfi_def_cfa w29, 16
	.cfi_offset w30, -8
	.cfi_offset w29, -16
	str	x8, [sp]                        ; 8-byte Folded Spill
	stur	x8, [x29, #-8]
	str	x0, [sp, #16]
	str	x1, [sp, #8]
	ldr	x0, [sp, #8]
	ldr	x2, [sp, #16]
	mov	x1, #0
	bl	__ZNSt3__112basic_stringIcNS_11char_traitsIcEENS_9allocatorIcEEE6insertEmPKc
	mov	x1, x0
	ldr	x0, [sp]                        ; 8-byte Folded Reload
	bl	__ZNSt3__112basic_stringIcNS_11char_traitsIcEENS_9allocatorIcEEEC1B6v15006EOS5_
	ldp	x29, x30, [sp, #32]             ; 16-byte Folded Reload
	add	sp, sp, #48
	retab
	.cfi_endproc
                                        ; -- End function
	.globl	__ZN11SnakeSenzia4Core7cleanupEv ; -- Begin function _ZN11SnakeSenzia4Core7cleanupEv
	.p2align	2
__ZN11SnakeSenzia4Core7cleanupEv:       ; @_ZN11SnakeSenzia4Core7cleanupEv
Lfunc_begin10:
	.cfi_startproc
	.cfi_personality 155, ___gxx_personality_v0
	.cfi_lsda 16, Lexception10
; %bb.0:
	pacibsp
	sub	sp, sp, #96
	.cfi_def_cfa_offset 96
	stp	x29, x30, [sp, #80]             ; 16-byte Folded Spill
	add	x29, sp, #80
	.cfi_def_cfa w29, 16
	.cfi_offset w30, -8
	.cfi_offset w29, -16
	stur	x0, [x29, #-8]
	bl	_endwin
	adrp	x8, _context@PAGE
	ldr	x8, [x8, _context@PAGEOFF]
	ldr	x8, [x8, #16]
	str	x8, [sp]                        ; 8-byte Folded Spill
	sub	x0, x29, #32
	adrp	x1, l_.str.44@PAGE
	add	x1, x1, l_.str.44@PAGEOFF
	bl	__ZNSt3__112basic_stringIcNS_11char_traitsIcEENS_9allocatorIcEEEC1B6v15006IDnEEPKc
Ltmp363:
	add	x0, sp, #24
	adrp	x1, l_.str.55@PAGE
	add	x1, x1, l_.str.55@PAGEOFF
	bl	__ZNSt3__112basic_stringIcNS_11char_traitsIcEENS_9allocatorIcEEEC1B6v15006IDnEEPKc
Ltmp364:
	b	LBB71_1
LBB71_1:
	ldr	x0, [sp]                        ; 8-byte Folded Reload
	adrp	x8, _context@PAGE
	ldr	x8, [x8, _context@PAGEOFF]
	ldr	x3, [x8, #24]
Ltmp366:
	sub	x1, x29, #32
	add	x2, sp, #24
	bl	__ZN11SnakeSenzia7Logging8printLogENSt3__112basic_stringIcNS1_11char_traitsIcEENS1_9allocatorIcEEEES7_PNS_5TimerE
Ltmp367:
	b	LBB71_2
LBB71_2:
	add	x0, sp, #24
	bl	__ZNSt3__112basic_stringIcNS_11char_traitsIcEENS_9allocatorIcEEED1Ev
	sub	x0, x29, #32
	bl	__ZNSt3__112basic_stringIcNS_11char_traitsIcEENS_9allocatorIcEEED1Ev
	ldp	x29, x30, [sp, #80]             ; 16-byte Folded Reload
	add	sp, sp, #96
	retab
LBB71_3:
Ltmp365:
	mov	x8, x1
	str	x0, [sp, #16]
	str	w8, [sp, #12]
	b	LBB71_5
LBB71_4:
Ltmp368:
	mov	x8, x1
	str	x0, [sp, #16]
	str	w8, [sp, #12]
	add	x0, sp, #24
	bl	__ZNSt3__112basic_stringIcNS_11char_traitsIcEENS_9allocatorIcEEED1Ev
	b	LBB71_5
LBB71_5:
	sub	x0, x29, #32
	bl	__ZNSt3__112basic_stringIcNS_11char_traitsIcEENS_9allocatorIcEEED1Ev
	b	LBB71_6
LBB71_6:
	ldr	x0, [sp, #16]
	bl	__Unwind_Resume
Lfunc_end10:
	.cfi_endproc
	.section	__TEXT,__gcc_except_tab
	.p2align	2
GCC_except_table71:
Lexception10:
	.byte	255                             ; @LPStart Encoding = omit
	.byte	255                             ; @TType Encoding = omit
	.byte	1                               ; Call site Encoding = uleb128
	.uleb128 Lcst_end10-Lcst_begin10
Lcst_begin10:
	.uleb128 Lfunc_begin10-Lfunc_begin10    ; >> Call Site 1 <<
	.uleb128 Ltmp363-Lfunc_begin10          ;   Call between Lfunc_begin10 and Ltmp363
	.byte	0                               ;     has no landing pad
	.byte	0                               ;   On action: cleanup
	.uleb128 Ltmp363-Lfunc_begin10          ; >> Call Site 2 <<
	.uleb128 Ltmp364-Ltmp363                ;   Call between Ltmp363 and Ltmp364
	.uleb128 Ltmp365-Lfunc_begin10          ;     jumps to Ltmp365
	.byte	0                               ;   On action: cleanup
	.uleb128 Ltmp366-Lfunc_begin10          ; >> Call Site 3 <<
	.uleb128 Ltmp367-Ltmp366                ;   Call between Ltmp366 and Ltmp367
	.uleb128 Ltmp368-Lfunc_begin10          ;     jumps to Ltmp368
	.byte	0                               ;   On action: cleanup
	.uleb128 Ltmp367-Lfunc_begin10          ; >> Call Site 4 <<
	.uleb128 Lfunc_end10-Ltmp367            ;   Call between Ltmp367 and Lfunc_end10
	.byte	0                               ;     has no landing pad
	.byte	0                               ;   On action: cleanup
Lcst_end10:
	.p2align	2
                                        ; -- End function
	.section	__TEXT,__text,regular,pure_instructions
	.globl	__Z11exitHandleri               ; -- Begin function _Z11exitHandleri
	.p2align	2
__Z11exitHandleri:                      ; @_Z11exitHandleri
Lfunc_begin11:
	.cfi_startproc
	.cfi_personality 155, ___gxx_personality_v0
	.cfi_lsda 16, Lexception11
; %bb.0:
	pacibsp
	sub	sp, sp, #192
	.cfi_def_cfa_offset 192
	stp	x29, x30, [sp, #176]            ; 16-byte Folded Spill
	add	x29, sp, #176
	.cfi_def_cfa w29, 16
	.cfi_offset w30, -8
	.cfi_offset w29, -16
	stur	w0, [x29, #-4]
	adrp	x8, _context@PAGE
	str	x8, [sp, #88]                   ; 8-byte Folded Spill
	ldr	x8, [x8, _context@PAGEOFF]
	ldr	x0, [x8, #8]
	bl	__ZN11SnakeSenzia4Core7cleanupEv
	ldr	x8, [sp, #88]                   ; 8-byte Folded Reload
	ldr	x8, [x8, _context@PAGEOFF]
	ldr	x8, [x8, #16]
	stur	x8, [x29, #-80]                 ; 8-byte Folded Spill
	sub	x0, x29, #32
	adrp	x1, l_.str.44@PAGE
	add	x1, x1, l_.str.44@PAGEOFF
	bl	__ZNSt3__112basic_stringIcNS_11char_traitsIcEENS_9allocatorIcEEEC1B6v15006IDnEEPKc
Ltmp369:
	sub	x0, x29, #56
	adrp	x1, l_.str.56@PAGE
	add	x1, x1, l_.str.56@PAGEOFF
	bl	__ZNSt3__112basic_stringIcNS_11char_traitsIcEENS_9allocatorIcEEEC1B6v15006IDnEEPKc
Ltmp370:
	b	LBB72_1
LBB72_1:
	ldur	x0, [x29, #-80]                 ; 8-byte Folded Reload
	adrp	x8, _context@PAGE
	ldr	x8, [x8, _context@PAGEOFF]
	ldr	x3, [x8, #24]
Ltmp372:
	sub	x1, x29, #32
	sub	x2, x29, #56
	bl	__ZN11SnakeSenzia7Logging8printLogENSt3__112basic_stringIcNS1_11char_traitsIcEENS1_9allocatorIcEEEES7_PNS_5TimerE
Ltmp373:
	b	LBB72_2
LBB72_2:
	sub	x0, x29, #56
	bl	__ZNSt3__112basic_stringIcNS_11char_traitsIcEENS_9allocatorIcEEED1Ev
	sub	x0, x29, #32
	bl	__ZNSt3__112basic_stringIcNS_11char_traitsIcEENS_9allocatorIcEEED1Ev
	adrp	x8, _context@PAGE
	ldr	x8, [x8, _context@PAGEOFF]
	ldr	x8, [x8]
	str	x8, [sp, #80]                   ; 8-byte Folded Spill
	subs	x8, x8, #0
	cset	w8, eq
	tbnz	w8, #0, LBB72_4
	b	LBB72_3
LBB72_3:
	ldr	x0, [sp, #80]                   ; 8-byte Folded Reload
	bl	__ZdlPv
	b	LBB72_4
LBB72_4:
	adrp	x8, _context@PAGE
	ldr	x9, [x8, _context@PAGEOFF]
                                        ; kill: def $x10 killed $xzr
	str	xzr, [x9]
	ldr	x8, [x8, _context@PAGEOFF]
	ldr	x8, [x8, #8]
	str	x8, [sp, #72]                   ; 8-byte Folded Spill
	subs	x8, x8, #0
	cset	w8, eq
	tbnz	w8, #0, LBB72_6
	b	LBB72_5
LBB72_5:
	ldr	x0, [sp, #72]                   ; 8-byte Folded Reload
	bl	__ZdlPv
	b	LBB72_6
LBB72_6:
	adrp	x8, _context@PAGE
	ldr	x9, [x8, _context@PAGEOFF]
                                        ; kill: def $x10 killed $xzr
	str	xzr, [x9, #8]
	ldr	x8, [x8, _context@PAGEOFF]
	ldr	x8, [x8, #32]
	str	x8, [sp, #64]                   ; 8-byte Folded Spill
	subs	x8, x8, #0
	cset	w8, eq
	tbnz	w8, #0, LBB72_8
	b	LBB72_7
LBB72_7:
	ldr	x0, [sp, #64]                   ; 8-byte Folded Reload
	bl	__ZdlPv
	b	LBB72_8
LBB72_8:
	adrp	x8, _context@PAGE
	ldr	x9, [x8, _context@PAGEOFF]
                                        ; kill: def $x10 killed $xzr
	str	xzr, [x9, #32]
	ldr	x8, [x8, _context@PAGEOFF]
	ldr	x8, [x8, #24]
	str	x8, [sp, #56]                   ; 8-byte Folded Spill
	subs	x8, x8, #0
	cset	w8, eq
	tbnz	w8, #0, LBB72_10
	b	LBB72_9
LBB72_9:
	ldr	x0, [sp, #56]                   ; 8-byte Folded Reload
	bl	__ZdlPv
	b	LBB72_10
LBB72_10:
	adrp	x8, _context@PAGE
	ldr	x9, [x8, _context@PAGEOFF]
                                        ; kill: def $x10 killed $xzr
	str	xzr, [x9, #24]
	ldr	x8, [x8, _context@PAGEOFF]
	ldr	x8, [x8, #16]
	str	x8, [sp, #48]                   ; 8-byte Folded Spill
	subs	x8, x8, #0
	cset	w8, eq
	tbnz	w8, #0, LBB72_12
	b	LBB72_11
LBB72_11:
	ldr	x0, [sp, #48]                   ; 8-byte Folded Reload
	bl	__ZdlPv
	b	LBB72_12
LBB72_12:
	adrp	x8, _context@PAGE
	ldr	x9, [x8, _context@PAGEOFF]
                                        ; kill: def $x10 killed $xzr
	str	xzr, [x9, #16]
	ldr	x8, [x8, _context@PAGEOFF]
	ldr	x8, [x8, #40]
	str	x8, [sp, #40]                   ; 8-byte Folded Spill
	subs	x8, x8, #0
	cset	w8, eq
	tbnz	w8, #0, LBB72_14
	b	LBB72_13
LBB72_13:
	ldr	x0, [sp, #40]                   ; 8-byte Folded Reload
	bl	__ZdlPv
	b	LBB72_14
LBB72_14:
	adrp	x8, _context@PAGE
	ldr	x9, [x8, _context@PAGEOFF]
                                        ; kill: def $x10 killed $xzr
	str	xzr, [x9, #40]
	ldr	x8, [x8, _context@PAGEOFF]
	ldr	x8, [x8, #48]
	str	x8, [sp, #32]                   ; 8-byte Folded Spill
	subs	x8, x8, #0
	cset	w8, eq
	tbnz	w8, #0, LBB72_16
	b	LBB72_15
LBB72_15:
	ldr	x0, [sp, #32]                   ; 8-byte Folded Reload
	bl	__ZdlPv
	b	LBB72_16
LBB72_16:
	adrp	x8, _context@PAGE
	ldr	x9, [x8, _context@PAGEOFF]
                                        ; kill: def $x10 killed $xzr
	str	xzr, [x9, #48]
	ldr	x8, [x8, _context@PAGEOFF]
	ldr	x8, [x8, #56]
	str	x8, [sp, #24]                   ; 8-byte Folded Spill
	subs	x8, x8, #0
	cset	w8, eq
	tbnz	w8, #0, LBB72_18
	b	LBB72_17
LBB72_17:
	ldr	x0, [sp, #24]                   ; 8-byte Folded Reload
	bl	__ZdlPv
	b	LBB72_18
LBB72_18:
	adrp	x8, _context@PAGE
	str	x8, [sp, #8]                    ; 8-byte Folded Spill
	ldr	x9, [x8, _context@PAGEOFF]
                                        ; kill: def $x10 killed $xzr
	str	xzr, [x9, #56]
	ldr	x0, [x8, _context@PAGEOFF]
	ldr	x8, [x8, _context@PAGEOFF]
	ldr	x1, [x8, #64]
	bl	__ZN11GameContext8freeFontEPv
	ldr	x8, [sp, #8]                    ; 8-byte Folded Reload
	ldr	x8, [x8, _context@PAGEOFF]
	str	x8, [sp, #16]                   ; 8-byte Folded Spill
	subs	x8, x8, #0
	cset	w8, eq
	tbnz	w8, #0, LBB72_20
	b	LBB72_19
LBB72_19:
	ldr	x0, [sp, #16]                   ; 8-byte Folded Reload
	bl	__ZdlPv
	b	LBB72_20
LBB72_20:
                                        ; kill: def $x8 killed $xzr
	adrp	x8, _context@PAGE
	str	xzr, [x8, _context@PAGEOFF]
	mov	w0, #0
	bl	_exit
LBB72_21:
Ltmp371:
	mov	x8, x1
	stur	x0, [x29, #-64]
	stur	w8, [x29, #-68]
	b	LBB72_23
LBB72_22:
Ltmp374:
	mov	x8, x1
	stur	x0, [x29, #-64]
	stur	w8, [x29, #-68]
	sub	x0, x29, #56
	bl	__ZNSt3__112basic_stringIcNS_11char_traitsIcEENS_9allocatorIcEEED1Ev
	b	LBB72_23
LBB72_23:
	sub	x0, x29, #32
	bl	__ZNSt3__112basic_stringIcNS_11char_traitsIcEENS_9allocatorIcEEED1Ev
	b	LBB72_24
LBB72_24:
	ldur	x0, [x29, #-64]
	bl	__Unwind_Resume
Lfunc_end11:
	.cfi_endproc
	.section	__TEXT,__gcc_except_tab
	.p2align	2
GCC_except_table72:
Lexception11:
	.byte	255                             ; @LPStart Encoding = omit
	.byte	255                             ; @TType Encoding = omit
	.byte	1                               ; Call site Encoding = uleb128
	.uleb128 Lcst_end11-Lcst_begin11
Lcst_begin11:
	.uleb128 Lfunc_begin11-Lfunc_begin11    ; >> Call Site 1 <<
	.uleb128 Ltmp369-Lfunc_begin11          ;   Call between Lfunc_begin11 and Ltmp369
	.byte	0                               ;     has no landing pad
	.byte	0                               ;   On action: cleanup
	.uleb128 Ltmp369-Lfunc_begin11          ; >> Call Site 2 <<
	.uleb128 Ltmp370-Ltmp369                ;   Call between Ltmp369 and Ltmp370
	.uleb128 Ltmp371-Lfunc_begin11          ;     jumps to Ltmp371
	.byte	0                               ;   On action: cleanup
	.uleb128 Ltmp372-Lfunc_begin11          ; >> Call Site 3 <<
	.uleb128 Ltmp373-Ltmp372                ;   Call between Ltmp372 and Ltmp373
	.uleb128 Ltmp374-Lfunc_begin11          ;     jumps to Ltmp374
	.byte	0                               ;   On action: cleanup
	.uleb128 Ltmp373-Lfunc_begin11          ; >> Call Site 4 <<
	.uleb128 Lfunc_end11-Ltmp373            ;   Call between Ltmp373 and Lfunc_end11
	.byte	0                               ;     has no landing pad
	.byte	0                               ;   On action: cleanup
Lcst_end11:
	.p2align	2
                                        ; -- End function
	.section	__TEXT,__text,regular,pure_instructions
	.globl	__ZN11GameContext8freeFontEPv   ; -- Begin function _ZN11GameContext8freeFontEPv
	.weak_definition	__ZN11GameContext8freeFontEPv
	.p2align	2
__ZN11GameContext8freeFontEPv:          ; @_ZN11GameContext8freeFontEPv
	.cfi_startproc
; %bb.0:
	pacibsp
	sub	sp, sp, #64
	.cfi_def_cfa_offset 64
	stp	x29, x30, [sp, #48]             ; 16-byte Folded Spill
	add	x29, sp, #48
	.cfi_def_cfa w29, 16
	.cfi_offset w30, -8
	.cfi_offset w29, -16
	stur	x0, [x29, #-8]
	stur	x1, [x29, #-16]
	ldur	x0, [x29, #-8]
	str	x0, [sp, #24]                   ; 8-byte Folded Spill
	ldur	x1, [x29, #-16]
	bl	__ZN11GameContext11getFontTypeEPv
	subs	w8, w0, #1
	cset	w8, ne
	tbnz	w8, #0, LBB73_4
	b	LBB73_1
LBB73_1:
	ldur	x8, [x29, #-16]
	str	x8, [sp, #16]                   ; 8-byte Folded Spill
	subs	x8, x8, #0
	cset	w8, eq
	tbnz	w8, #0, LBB73_3
	b	LBB73_2
LBB73_2:
	ldr	x0, [sp, #16]                   ; 8-byte Folded Reload
	bl	__ZN4FontIcED1Ev
	ldr	x0, [sp, #16]                   ; 8-byte Folded Reload
	bl	__ZdlPv
	b	LBB73_3
LBB73_3:
	b	LBB73_14
LBB73_4:
	ldr	x0, [sp, #24]                   ; 8-byte Folded Reload
	ldur	x1, [x29, #-16]
	bl	__ZN11GameContext11getFontTypeEPv
	subs	w8, w0, #2
	cset	w8, ne
	tbnz	w8, #0, LBB73_8
	b	LBB73_5
LBB73_5:
	ldur	x8, [x29, #-16]
	str	x8, [sp, #8]                    ; 8-byte Folded Spill
	subs	x8, x8, #0
	cset	w8, eq
	tbnz	w8, #0, LBB73_7
	b	LBB73_6
LBB73_6:
	ldr	x0, [sp, #8]                    ; 8-byte Folded Reload
	bl	__ZN4FontIwED1Ev
	ldr	x0, [sp, #8]                    ; 8-byte Folded Reload
	bl	__ZdlPv
	b	LBB73_7
LBB73_7:
	b	LBB73_13
LBB73_8:
	ldr	x0, [sp, #24]                   ; 8-byte Folded Reload
	ldur	x1, [x29, #-16]
	bl	__ZN11GameContext11getFontTypeEPv
	mov	w8, #65535
	subs	w8, w0, w8
	cset	w8, ne
	tbnz	w8, #0, LBB73_12
	b	LBB73_9
LBB73_9:
	ldur	x8, [x29, #-16]
	str	x8, [sp]                        ; 8-byte Folded Spill
	subs	x8, x8, #0
	cset	w8, eq
	tbnz	w8, #0, LBB73_11
	b	LBB73_10
LBB73_10:
	ldr	x0, [sp]                        ; 8-byte Folded Reload
	bl	__ZdlPv
	b	LBB73_11
LBB73_11:
	b	LBB73_12
LBB73_12:
	b	LBB73_13
LBB73_13:
	b	LBB73_14
LBB73_14:
	ldp	x29, x30, [sp, #48]             ; 16-byte Folded Reload
	add	sp, sp, #64
	retab
	.cfi_endproc
                                        ; -- End function
	.globl	__Z12errorHandleri              ; -- Begin function _Z12errorHandleri
	.p2align	2
__Z12errorHandleri:                     ; @_Z12errorHandleri
Lfunc_begin12:
	.cfi_startproc
	.cfi_personality 155, ___gxx_personality_v0
	.cfi_lsda 16, Lexception12
; %bb.0:
	pacibsp
	stp	x28, x27, [sp, #-32]!           ; 16-byte Folded Spill
	.cfi_def_cfa_offset 32
	stp	x29, x30, [sp, #16]             ; 16-byte Folded Spill
	add	x29, sp, #16
	.cfi_def_cfa w29, 16
	.cfi_offset w30, -8
	.cfi_offset w29, -16
	.cfi_offset w27, -24
	.cfi_offset w28, -32
	sub	sp, sp, #784
	adrp	x8, __ZNSt3__14coutE@GOTPAGE
	ldr	x8, [x8, __ZNSt3__14coutE@GOTPAGEOFF]
	str	x8, [sp, #296]                  ; 8-byte Folded Spill
                                        ; implicit-def: $x16
                                        ; implicit-def: $x17
	adrp	x16, __ZNSt3__14endlIcNS_11char_traitsIcEEEERNS_13basic_ostreamIT_T0_EES7_@GOTPAGE
	ldr	x16, [x16, __ZNSt3__14endlIcNS_11char_traitsIcEEEERNS_13basic_ostreamIT_T0_EES7_@GOTPAGEOFF]
	paciza	x16
	str	x16, [sp, #304]                 ; 8-byte Folded Spill
                                        ; implicit-def: $x16
                                        ; implicit-def: $x17
	adrp	x16, __ZNSt3__13hexERNS_8ios_baseE@GOTPAGE
	ldr	x16, [x16, __ZNSt3__13hexERNS_8ios_baseE@GOTPAGEOFF]
	paciza	x16
	str	x16, [sp, #312]                 ; 8-byte Folded Spill
	adrp	x8, ___stack_chk_guard@GOTPAGE
	ldr	x8, [x8, ___stack_chk_guard@GOTPAGEOFF]
	ldr	x8, [x8]
	stur	x8, [x29, #-24]
	str	w0, [sp, #524]
	adrp	x8, _context@PAGE
	ldr	x8, [x8, _context@PAGEOFF]
	ldr	x0, [x8, #8]
	bl	__ZN11SnakeSenzia4Core7cleanupEv
	ldr	w8, [sp, #524]
	subs	w8, w8, #6
	cset	w8, ne
	tbnz	w8, #0, LBB74_7
	b	LBB74_1
LBB74_1:
	adrp	x8, _context@PAGE
	ldr	x8, [x8, _context@PAGEOFF]
	ldr	x8, [x8, #16]
	str	x8, [sp, #288]                  ; 8-byte Folded Spill
	add	x0, sp, #496
	adrp	x1, l_.str.44@PAGE
	add	x1, x1, l_.str.44@PAGEOFF
	bl	__ZNSt3__112basic_stringIcNS_11char_traitsIcEENS_9allocatorIcEEEC1B6v15006IDnEEPKc
Ltmp375:
	add	x0, sp, #472
	adrp	x1, l_.str.57@PAGE
	add	x1, x1, l_.str.57@PAGEOFF
	bl	__ZNSt3__112basic_stringIcNS_11char_traitsIcEENS_9allocatorIcEEEC1B6v15006IDnEEPKc
Ltmp376:
	b	LBB74_2
LBB74_2:
	ldr	x0, [sp, #288]                  ; 8-byte Folded Reload
	adrp	x8, _context@PAGE
	ldr	x8, [x8, _context@PAGEOFF]
	ldr	x3, [x8, #24]
Ltmp378:
	add	x1, sp, #496
	add	x2, sp, #472
	bl	__ZN11SnakeSenzia7Logging8printLogENSt3__112basic_stringIcNS1_11char_traitsIcEENS1_9allocatorIcEEEES7_PNS_5TimerE
Ltmp379:
	b	LBB74_3
LBB74_3:
	add	x0, sp, #472
	bl	__ZNSt3__112basic_stringIcNS_11char_traitsIcEENS_9allocatorIcEEED1Ev
	add	x0, sp, #496
	bl	__ZNSt3__112basic_stringIcNS_11char_traitsIcEENS_9allocatorIcEEED1Ev
	b	LBB74_7
LBB74_4:
Ltmp377:
	mov	x8, x1
	str	x0, [sp, #464]
	str	w8, [sp, #460]
	b	LBB74_6
LBB74_5:
Ltmp380:
	mov	x8, x1
	str	x0, [sp, #464]
	str	w8, [sp, #460]
	add	x0, sp, #472
	bl	__ZNSt3__112basic_stringIcNS_11char_traitsIcEENS_9allocatorIcEEED1Ev
	b	LBB74_6
LBB74_6:
	add	x0, sp, #496
	bl	__ZNSt3__112basic_stringIcNS_11char_traitsIcEENS_9allocatorIcEEED1Ev
	b	LBB74_10
LBB74_7:
	ldr	x0, [sp, #296]                  ; 8-byte Folded Reload
	add	x9, sp, #528
	; InlineAsm Start
	stp	x0, x1, [x0, #-16]
	stp	x2, x3, [x0, #-16]
	stp	x4, x5, [x0, #-16]
	stp	x6, x7, [x0, #-16]
	stp	x8, x9, [x0, #-16]
	stp	x10, x11, [x0, #-16]
	stp	x12, x13, [x0, #-16]
	stp	x14, x15, [x0, #-16]
	stp	x16, x17, [x0, #-16]
	stp	x18, x19, [x0, #-16]
	stp	x20, x21, [x0, #-16]
	stp	x22, x23, [x0, #-16]
	stp	x24, x25, [x0, #-16]
	stp	x26, x27, [x0, #-16]
	stp	x28, x29, [x0, #-16]
	stp	x30, xzr, [x0, #-16]
	adr	x8, Ltmp381
Ltmp381:
	; InlineAsm End
	str	x8, [sp, #448]
	adrp	x1, l_.str.58@PAGE
	add	x1, x1, l_.str.58@PAGEOFF
	bl	__ZNSt3__1lsINS_11char_traitsIcEEEERNS_13basic_ostreamIcT_EES6_PKc
	ldr	x1, [sp, #304]                  ; 8-byte Folded Reload
	bl	__ZNSt3__113basic_ostreamIcNS_11char_traitsIcEEElsB6v15006EPFRS3_S4_E
	ldr	x0, [sp, #296]                  ; 8-byte Folded Reload
	adrp	x1, l_.str.59@PAGE
	add	x1, x1, l_.str.59@PAGEOFF
	bl	__ZNSt3__1lsINS_11char_traitsIcEEEERNS_13basic_ostreamIcT_EES6_PKc
	ldr	x1, [sp, #312]                  ; 8-byte Folded Reload
	bl	__ZNSt3__113basic_ostreamIcNS_11char_traitsIcEEElsB6v15006EPFRNS_8ios_baseES5_E
	str	x0, [sp, #8]                    ; 8-byte Folded Spill
	mov	w0, #48
	str	w0, [sp, #260]                  ; 4-byte Folded Spill
	bl	__ZNSt3__17setfillB6v15006IcEENS_8__iom_t4IT_EES2_
	mov	x8, x0
	ldr	x0, [sp, #8]                    ; 8-byte Folded Reload
	add	x1, sp, #447
	strb	w8, [sp, #447]
	bl	__ZNSt3__1lsB6v15006INS_11char_traitsIcEEEERNS_13basic_ostreamIcT_EES6_RKNS_8__iom_t4IcEE
	str	x0, [sp, #16]                   ; 8-byte Folded Spill
	mov	w0, #16
	str	w0, [sp, #276]                  ; 4-byte Folded Spill
	bl	__ZNSt3__14setwB6v15006Ei
	mov	x8, x0
	ldr	x0, [sp, #16]                   ; 8-byte Folded Reload
	add	x1, sp, #440
	str	w8, [sp, #440]
	bl	__ZNSt3__1lsB6v15006IcNS_11char_traitsIcEEEERNS_13basic_ostreamIT_T0_EES7_RKNS_8__iom_t6E
	ldr	x1, [sp, #528]
	bl	__ZNSt3__113basic_ostreamIcNS_11char_traitsIcEEElsEy
	adrp	x1, l_.str.60@PAGE
	add	x1, x1, l_.str.60@PAGEOFF
	str	x1, [sp, #248]                  ; 8-byte Folded Spill
	bl	__ZNSt3__1lsINS_11char_traitsIcEEEERNS_13basic_ostreamIcT_EES6_PKc
	ldr	x0, [sp, #296]                  ; 8-byte Folded Reload
	adrp	x1, l_.str.61@PAGE
	add	x1, x1, l_.str.61@PAGEOFF
	bl	__ZNSt3__1lsINS_11char_traitsIcEEEERNS_13basic_ostreamIcT_EES6_PKc
	ldr	x1, [sp, #312]                  ; 8-byte Folded Reload
	bl	__ZNSt3__113basic_ostreamIcNS_11char_traitsIcEEElsB6v15006EPFRNS_8ios_baseES5_E
	mov	x1, x0
	ldr	w0, [sp, #260]                  ; 4-byte Folded Reload
	str	x1, [sp, #24]                   ; 8-byte Folded Spill
	bl	__ZNSt3__17setfillB6v15006IcEENS_8__iom_t4IT_EES2_
	mov	x8, x0
	ldr	x0, [sp, #24]                   ; 8-byte Folded Reload
	add	x1, sp, #439
	strb	w8, [sp, #439]
	bl	__ZNSt3__1lsB6v15006INS_11char_traitsIcEEEERNS_13basic_ostreamIcT_EES6_RKNS_8__iom_t4IcEE
	mov	x1, x0
	ldr	w0, [sp, #276]                  ; 4-byte Folded Reload
	str	x1, [sp, #32]                   ; 8-byte Folded Spill
	bl	__ZNSt3__14setwB6v15006Ei
	mov	x8, x0
	ldr	x0, [sp, #32]                   ; 8-byte Folded Reload
	add	x1, sp, #432
	str	w8, [sp, #432]
	bl	__ZNSt3__1lsB6v15006IcNS_11char_traitsIcEEEERNS_13basic_ostreamIT_T0_EES7_RKNS_8__iom_t6E
	ldr	x1, [sp, #528]
	bl	__ZNSt3__113basic_ostreamIcNS_11char_traitsIcEEElsEy
	ldr	x1, [sp, #248]                  ; 8-byte Folded Reload
	bl	__ZNSt3__1lsINS_11char_traitsIcEEEERNS_13basic_ostreamIcT_EES6_PKc
	ldr	x0, [sp, #296]                  ; 8-byte Folded Reload
	adrp	x1, l_.str.62@PAGE
	add	x1, x1, l_.str.62@PAGEOFF
	bl	__ZNSt3__1lsINS_11char_traitsIcEEEERNS_13basic_ostreamIcT_EES6_PKc
	ldr	x1, [sp, #312]                  ; 8-byte Folded Reload
	bl	__ZNSt3__113basic_ostreamIcNS_11char_traitsIcEEElsB6v15006EPFRNS_8ios_baseES5_E
	mov	x1, x0
	ldr	w0, [sp, #260]                  ; 4-byte Folded Reload
	str	x1, [sp, #40]                   ; 8-byte Folded Spill
	bl	__ZNSt3__17setfillB6v15006IcEENS_8__iom_t4IT_EES2_
	mov	x8, x0
	ldr	x0, [sp, #40]                   ; 8-byte Folded Reload
	add	x1, sp, #431
	strb	w8, [sp, #431]
	bl	__ZNSt3__1lsB6v15006INS_11char_traitsIcEEEERNS_13basic_ostreamIcT_EES6_RKNS_8__iom_t4IcEE
	mov	x1, x0
	ldr	w0, [sp, #276]                  ; 4-byte Folded Reload
	str	x1, [sp, #48]                   ; 8-byte Folded Spill
	bl	__ZNSt3__14setwB6v15006Ei
	mov	x8, x0
	ldr	x0, [sp, #48]                   ; 8-byte Folded Reload
	add	x1, sp, #424
	str	w8, [sp, #424]
	bl	__ZNSt3__1lsB6v15006IcNS_11char_traitsIcEEEERNS_13basic_ostreamIT_T0_EES7_RKNS_8__iom_t6E
	ldr	x1, [sp, #528]
	bl	__ZNSt3__113basic_ostreamIcNS_11char_traitsIcEEElsEy
	ldr	x1, [sp, #248]                  ; 8-byte Folded Reload
	bl	__ZNSt3__1lsINS_11char_traitsIcEEEERNS_13basic_ostreamIcT_EES6_PKc
	ldr	x0, [sp, #296]                  ; 8-byte Folded Reload
	adrp	x1, l_.str.63@PAGE
	add	x1, x1, l_.str.63@PAGEOFF
	bl	__ZNSt3__1lsINS_11char_traitsIcEEEERNS_13basic_ostreamIcT_EES6_PKc
	ldr	x1, [sp, #312]                  ; 8-byte Folded Reload
	bl	__ZNSt3__113basic_ostreamIcNS_11char_traitsIcEEElsB6v15006EPFRNS_8ios_baseES5_E
	mov	x1, x0
	ldr	w0, [sp, #260]                  ; 4-byte Folded Reload
	str	x1, [sp, #56]                   ; 8-byte Folded Spill
	bl	__ZNSt3__17setfillB6v15006IcEENS_8__iom_t4IT_EES2_
	mov	x8, x0
	ldr	x0, [sp, #56]                   ; 8-byte Folded Reload
	add	x1, sp, #423
	strb	w8, [sp, #423]
	bl	__ZNSt3__1lsB6v15006INS_11char_traitsIcEEEERNS_13basic_ostreamIcT_EES6_RKNS_8__iom_t4IcEE
	mov	x1, x0
	ldr	w0, [sp, #276]                  ; 4-byte Folded Reload
	str	x1, [sp, #64]                   ; 8-byte Folded Spill
	bl	__ZNSt3__14setwB6v15006Ei
	mov	x8, x0
	ldr	x0, [sp, #64]                   ; 8-byte Folded Reload
	add	x1, sp, #416
	str	w8, [sp, #416]
	bl	__ZNSt3__1lsB6v15006IcNS_11char_traitsIcEEEERNS_13basic_ostreamIT_T0_EES7_RKNS_8__iom_t6E
	ldr	x1, [sp, #528]
	bl	__ZNSt3__113basic_ostreamIcNS_11char_traitsIcEEElsEy
	ldr	x1, [sp, #304]                  ; 8-byte Folded Reload
	bl	__ZNSt3__113basic_ostreamIcNS_11char_traitsIcEEElsB6v15006EPFRS3_S4_E
	ldr	x0, [sp, #296]                  ; 8-byte Folded Reload
	adrp	x1, l_.str.64@PAGE
	add	x1, x1, l_.str.64@PAGEOFF
	bl	__ZNSt3__1lsINS_11char_traitsIcEEEERNS_13basic_ostreamIcT_EES6_PKc
	ldr	x1, [sp, #312]                  ; 8-byte Folded Reload
	bl	__ZNSt3__113basic_ostreamIcNS_11char_traitsIcEEElsB6v15006EPFRNS_8ios_baseES5_E
	mov	x1, x0
	ldr	w0, [sp, #260]                  ; 4-byte Folded Reload
	str	x1, [sp, #72]                   ; 8-byte Folded Spill
	bl	__ZNSt3__17setfillB6v15006IcEENS_8__iom_t4IT_EES2_
	mov	x8, x0
	ldr	x0, [sp, #72]                   ; 8-byte Folded Reload
	add	x1, sp, #415
	strb	w8, [sp, #415]
	bl	__ZNSt3__1lsB6v15006INS_11char_traitsIcEEEERNS_13basic_ostreamIcT_EES6_RKNS_8__iom_t4IcEE
	mov	x1, x0
	ldr	w0, [sp, #276]                  ; 4-byte Folded Reload
	str	x1, [sp, #80]                   ; 8-byte Folded Spill
	bl	__ZNSt3__14setwB6v15006Ei
	mov	x8, x0
	ldr	x0, [sp, #80]                   ; 8-byte Folded Reload
	add	x1, sp, #408
	str	w8, [sp, #408]
	bl	__ZNSt3__1lsB6v15006IcNS_11char_traitsIcEEEERNS_13basic_ostreamIT_T0_EES7_RKNS_8__iom_t6E
	ldr	x1, [sp, #528]
	bl	__ZNSt3__113basic_ostreamIcNS_11char_traitsIcEEElsEy
	ldr	x1, [sp, #248]                  ; 8-byte Folded Reload
	bl	__ZNSt3__1lsINS_11char_traitsIcEEEERNS_13basic_ostreamIcT_EES6_PKc
	ldr	x0, [sp, #296]                  ; 8-byte Folded Reload
	adrp	x1, l_.str.65@PAGE
	add	x1, x1, l_.str.65@PAGEOFF
	bl	__ZNSt3__1lsINS_11char_traitsIcEEEERNS_13basic_ostreamIcT_EES6_PKc
	ldr	x1, [sp, #312]                  ; 8-byte Folded Reload
	bl	__ZNSt3__113basic_ostreamIcNS_11char_traitsIcEEElsB6v15006EPFRNS_8ios_baseES5_E
	mov	x1, x0
	ldr	w0, [sp, #260]                  ; 4-byte Folded Reload
	str	x1, [sp, #88]                   ; 8-byte Folded Spill
	bl	__ZNSt3__17setfillB6v15006IcEENS_8__iom_t4IT_EES2_
	mov	x8, x0
	ldr	x0, [sp, #88]                   ; 8-byte Folded Reload
	add	x1, sp, #407
	strb	w8, [sp, #407]
	bl	__ZNSt3__1lsB6v15006INS_11char_traitsIcEEEERNS_13basic_ostreamIcT_EES6_RKNS_8__iom_t4IcEE
	mov	x1, x0
	ldr	w0, [sp, #276]                  ; 4-byte Folded Reload
	str	x1, [sp, #96]                   ; 8-byte Folded Spill
	bl	__ZNSt3__14setwB6v15006Ei
	mov	x8, x0
	ldr	x0, [sp, #96]                   ; 8-byte Folded Reload
	add	x1, sp, #400
	str	w8, [sp, #400]
	bl	__ZNSt3__1lsB6v15006IcNS_11char_traitsIcEEEERNS_13basic_ostreamIT_T0_EES7_RKNS_8__iom_t6E
	ldr	x1, [sp, #528]
	bl	__ZNSt3__113basic_ostreamIcNS_11char_traitsIcEEElsEy
	ldr	x1, [sp, #248]                  ; 8-byte Folded Reload
	bl	__ZNSt3__1lsINS_11char_traitsIcEEEERNS_13basic_ostreamIcT_EES6_PKc
	ldr	x0, [sp, #296]                  ; 8-byte Folded Reload
	adrp	x1, l_.str.66@PAGE
	add	x1, x1, l_.str.66@PAGEOFF
	bl	__ZNSt3__1lsINS_11char_traitsIcEEEERNS_13basic_ostreamIcT_EES6_PKc
	ldr	x1, [sp, #312]                  ; 8-byte Folded Reload
	bl	__ZNSt3__113basic_ostreamIcNS_11char_traitsIcEEElsB6v15006EPFRNS_8ios_baseES5_E
	mov	x1, x0
	ldr	w0, [sp, #260]                  ; 4-byte Folded Reload
	str	x1, [sp, #104]                  ; 8-byte Folded Spill
	bl	__ZNSt3__17setfillB6v15006IcEENS_8__iom_t4IT_EES2_
	mov	x8, x0
	ldr	x0, [sp, #104]                  ; 8-byte Folded Reload
	add	x1, sp, #399
	strb	w8, [sp, #399]
	bl	__ZNSt3__1lsB6v15006INS_11char_traitsIcEEEERNS_13basic_ostreamIcT_EES6_RKNS_8__iom_t4IcEE
	mov	x1, x0
	ldr	w0, [sp, #276]                  ; 4-byte Folded Reload
	str	x1, [sp, #112]                  ; 8-byte Folded Spill
	bl	__ZNSt3__14setwB6v15006Ei
	mov	x8, x0
	ldr	x0, [sp, #112]                  ; 8-byte Folded Reload
	add	x1, sp, #392
	str	w8, [sp, #392]
	bl	__ZNSt3__1lsB6v15006IcNS_11char_traitsIcEEEERNS_13basic_ostreamIT_T0_EES7_RKNS_8__iom_t6E
	ldr	x1, [sp, #528]
	bl	__ZNSt3__113basic_ostreamIcNS_11char_traitsIcEEElsEy
	ldr	x1, [sp, #248]                  ; 8-byte Folded Reload
	bl	__ZNSt3__1lsINS_11char_traitsIcEEEERNS_13basic_ostreamIcT_EES6_PKc
	ldr	x0, [sp, #296]                  ; 8-byte Folded Reload
	adrp	x1, l_.str.67@PAGE
	add	x1, x1, l_.str.67@PAGEOFF
	bl	__ZNSt3__1lsINS_11char_traitsIcEEEERNS_13basic_ostreamIcT_EES6_PKc
	ldr	x1, [sp, #312]                  ; 8-byte Folded Reload
	bl	__ZNSt3__113basic_ostreamIcNS_11char_traitsIcEEElsB6v15006EPFRNS_8ios_baseES5_E
	mov	x1, x0
	ldr	w0, [sp, #260]                  ; 4-byte Folded Reload
	str	x1, [sp, #120]                  ; 8-byte Folded Spill
	bl	__ZNSt3__17setfillB6v15006IcEENS_8__iom_t4IT_EES2_
	mov	x8, x0
	ldr	x0, [sp, #120]                  ; 8-byte Folded Reload
	add	x1, sp, #391
	strb	w8, [sp, #391]
	bl	__ZNSt3__1lsB6v15006INS_11char_traitsIcEEEERNS_13basic_ostreamIcT_EES6_RKNS_8__iom_t4IcEE
	mov	x1, x0
	ldr	w0, [sp, #276]                  ; 4-byte Folded Reload
	str	x1, [sp, #128]                  ; 8-byte Folded Spill
	bl	__ZNSt3__14setwB6v15006Ei
	mov	x8, x0
	ldr	x0, [sp, #128]                  ; 8-byte Folded Reload
	add	x1, sp, #384
	str	w8, [sp, #384]
	bl	__ZNSt3__1lsB6v15006IcNS_11char_traitsIcEEEERNS_13basic_ostreamIT_T0_EES7_RKNS_8__iom_t6E
	ldr	x1, [sp, #528]
	bl	__ZNSt3__113basic_ostreamIcNS_11char_traitsIcEEElsEy
	ldr	x1, [sp, #304]                  ; 8-byte Folded Reload
	bl	__ZNSt3__113basic_ostreamIcNS_11char_traitsIcEEElsB6v15006EPFRS3_S4_E
	ldr	x0, [sp, #296]                  ; 8-byte Folded Reload
	adrp	x1, l_.str.68@PAGE
	add	x1, x1, l_.str.68@PAGEOFF
	bl	__ZNSt3__1lsINS_11char_traitsIcEEEERNS_13basic_ostreamIcT_EES6_PKc
	ldr	x1, [sp, #312]                  ; 8-byte Folded Reload
	bl	__ZNSt3__113basic_ostreamIcNS_11char_traitsIcEEElsB6v15006EPFRNS_8ios_baseES5_E
	mov	x1, x0
	ldr	w0, [sp, #260]                  ; 4-byte Folded Reload
	str	x1, [sp, #136]                  ; 8-byte Folded Spill
	bl	__ZNSt3__17setfillB6v15006IcEENS_8__iom_t4IT_EES2_
	mov	x8, x0
	ldr	x0, [sp, #136]                  ; 8-byte Folded Reload
	add	x1, sp, #383
	strb	w8, [sp, #383]
	bl	__ZNSt3__1lsB6v15006INS_11char_traitsIcEEEERNS_13basic_ostreamIcT_EES6_RKNS_8__iom_t4IcEE
	mov	x1, x0
	ldr	w0, [sp, #276]                  ; 4-byte Folded Reload
	str	x1, [sp, #144]                  ; 8-byte Folded Spill
	bl	__ZNSt3__14setwB6v15006Ei
	mov	x8, x0
	ldr	x0, [sp, #144]                  ; 8-byte Folded Reload
	add	x1, sp, #376
	str	w8, [sp, #376]
	bl	__ZNSt3__1lsB6v15006IcNS_11char_traitsIcEEEERNS_13basic_ostreamIT_T0_EES7_RKNS_8__iom_t6E
	ldr	x1, [sp, #528]
	bl	__ZNSt3__113basic_ostreamIcNS_11char_traitsIcEEElsEy
	ldr	x1, [sp, #248]                  ; 8-byte Folded Reload
	bl	__ZNSt3__1lsINS_11char_traitsIcEEEERNS_13basic_ostreamIcT_EES6_PKc
	ldr	x0, [sp, #296]                  ; 8-byte Folded Reload
	adrp	x1, l_.str.69@PAGE
	add	x1, x1, l_.str.69@PAGEOFF
	bl	__ZNSt3__1lsINS_11char_traitsIcEEEERNS_13basic_ostreamIcT_EES6_PKc
	ldr	x1, [sp, #312]                  ; 8-byte Folded Reload
	bl	__ZNSt3__113basic_ostreamIcNS_11char_traitsIcEEElsB6v15006EPFRNS_8ios_baseES5_E
	mov	x1, x0
	ldr	w0, [sp, #260]                  ; 4-byte Folded Reload
	str	x1, [sp, #152]                  ; 8-byte Folded Spill
	bl	__ZNSt3__17setfillB6v15006IcEENS_8__iom_t4IT_EES2_
	mov	x8, x0
	ldr	x0, [sp, #152]                  ; 8-byte Folded Reload
	add	x1, sp, #375
	strb	w8, [sp, #375]
	bl	__ZNSt3__1lsB6v15006INS_11char_traitsIcEEEERNS_13basic_ostreamIcT_EES6_RKNS_8__iom_t4IcEE
	mov	x1, x0
	ldr	w0, [sp, #276]                  ; 4-byte Folded Reload
	str	x1, [sp, #160]                  ; 8-byte Folded Spill
	bl	__ZNSt3__14setwB6v15006Ei
	mov	x8, x0
	ldr	x0, [sp, #160]                  ; 8-byte Folded Reload
	add	x1, sp, #368
	str	w8, [sp, #368]
	bl	__ZNSt3__1lsB6v15006IcNS_11char_traitsIcEEEERNS_13basic_ostreamIT_T0_EES7_RKNS_8__iom_t6E
	ldr	x1, [sp, #528]
	bl	__ZNSt3__113basic_ostreamIcNS_11char_traitsIcEEElsEy
	ldr	x1, [sp, #248]                  ; 8-byte Folded Reload
	bl	__ZNSt3__1lsINS_11char_traitsIcEEEERNS_13basic_ostreamIcT_EES6_PKc
	ldr	x0, [sp, #296]                  ; 8-byte Folded Reload
	adrp	x1, l_.str.70@PAGE
	add	x1, x1, l_.str.70@PAGEOFF
	bl	__ZNSt3__1lsINS_11char_traitsIcEEEERNS_13basic_ostreamIcT_EES6_PKc
	ldr	x1, [sp, #312]                  ; 8-byte Folded Reload
	bl	__ZNSt3__113basic_ostreamIcNS_11char_traitsIcEEElsB6v15006EPFRNS_8ios_baseES5_E
	mov	x1, x0
	ldr	w0, [sp, #260]                  ; 4-byte Folded Reload
	str	x1, [sp, #168]                  ; 8-byte Folded Spill
	bl	__ZNSt3__17setfillB6v15006IcEENS_8__iom_t4IT_EES2_
	mov	x8, x0
	ldr	x0, [sp, #168]                  ; 8-byte Folded Reload
	add	x1, sp, #367
	strb	w8, [sp, #367]
	bl	__ZNSt3__1lsB6v15006INS_11char_traitsIcEEEERNS_13basic_ostreamIcT_EES6_RKNS_8__iom_t4IcEE
	mov	x1, x0
	ldr	w0, [sp, #276]                  ; 4-byte Folded Reload
	str	x1, [sp, #176]                  ; 8-byte Folded Spill
	bl	__ZNSt3__14setwB6v15006Ei
	mov	x8, x0
	ldr	x0, [sp, #176]                  ; 8-byte Folded Reload
	add	x1, sp, #360
	str	w8, [sp, #360]
	bl	__ZNSt3__1lsB6v15006IcNS_11char_traitsIcEEEERNS_13basic_ostreamIT_T0_EES7_RKNS_8__iom_t6E
	ldr	x1, [sp, #528]
	bl	__ZNSt3__113basic_ostreamIcNS_11char_traitsIcEEElsEy
	ldr	x1, [sp, #248]                  ; 8-byte Folded Reload
	bl	__ZNSt3__1lsINS_11char_traitsIcEEEERNS_13basic_ostreamIcT_EES6_PKc
	ldr	x0, [sp, #296]                  ; 8-byte Folded Reload
	adrp	x1, l_.str.71@PAGE
	add	x1, x1, l_.str.71@PAGEOFF
	bl	__ZNSt3__1lsINS_11char_traitsIcEEEERNS_13basic_ostreamIcT_EES6_PKc
	ldr	x1, [sp, #312]                  ; 8-byte Folded Reload
	bl	__ZNSt3__113basic_ostreamIcNS_11char_traitsIcEEElsB6v15006EPFRNS_8ios_baseES5_E
	mov	x1, x0
	ldr	w0, [sp, #260]                  ; 4-byte Folded Reload
	str	x1, [sp, #184]                  ; 8-byte Folded Spill
	bl	__ZNSt3__17setfillB6v15006IcEENS_8__iom_t4IT_EES2_
	mov	x8, x0
	ldr	x0, [sp, #184]                  ; 8-byte Folded Reload
	add	x1, sp, #359
	strb	w8, [sp, #359]
	bl	__ZNSt3__1lsB6v15006INS_11char_traitsIcEEEERNS_13basic_ostreamIcT_EES6_RKNS_8__iom_t4IcEE
	mov	x1, x0
	ldr	w0, [sp, #276]                  ; 4-byte Folded Reload
	str	x1, [sp, #192]                  ; 8-byte Folded Spill
	bl	__ZNSt3__14setwB6v15006Ei
	mov	x8, x0
	ldr	x0, [sp, #192]                  ; 8-byte Folded Reload
	add	x1, sp, #352
	str	w8, [sp, #352]
	bl	__ZNSt3__1lsB6v15006IcNS_11char_traitsIcEEEERNS_13basic_ostreamIT_T0_EES7_RKNS_8__iom_t6E
	ldr	x1, [sp, #528]
	bl	__ZNSt3__113basic_ostreamIcNS_11char_traitsIcEEElsEy
	ldr	x1, [sp, #304]                  ; 8-byte Folded Reload
	bl	__ZNSt3__113basic_ostreamIcNS_11char_traitsIcEEElsB6v15006EPFRS3_S4_E
	ldr	x0, [sp, #296]                  ; 8-byte Folded Reload
	adrp	x1, l_.str.72@PAGE
	add	x1, x1, l_.str.72@PAGEOFF
	bl	__ZNSt3__1lsINS_11char_traitsIcEEEERNS_13basic_ostreamIcT_EES6_PKc
	ldr	x1, [sp, #312]                  ; 8-byte Folded Reload
	bl	__ZNSt3__113basic_ostreamIcNS_11char_traitsIcEEElsB6v15006EPFRNS_8ios_baseES5_E
	mov	x1, x0
	ldr	w0, [sp, #260]                  ; 4-byte Folded Reload
	str	x1, [sp, #200]                  ; 8-byte Folded Spill
	bl	__ZNSt3__17setfillB6v15006IcEENS_8__iom_t4IT_EES2_
	mov	x8, x0
	ldr	x0, [sp, #200]                  ; 8-byte Folded Reload
	add	x1, sp, #351
	strb	w8, [sp, #351]
	bl	__ZNSt3__1lsB6v15006INS_11char_traitsIcEEEERNS_13basic_ostreamIcT_EES6_RKNS_8__iom_t4IcEE
	mov	x1, x0
	ldr	w0, [sp, #276]                  ; 4-byte Folded Reload
	str	x1, [sp, #208]                  ; 8-byte Folded Spill
	bl	__ZNSt3__14setwB6v15006Ei
	mov	x8, x0
	ldr	x0, [sp, #208]                  ; 8-byte Folded Reload
	add	x1, sp, #344
	str	w8, [sp, #344]
	bl	__ZNSt3__1lsB6v15006IcNS_11char_traitsIcEEEERNS_13basic_ostreamIT_T0_EES7_RKNS_8__iom_t6E
	ldr	x1, [sp, #528]
	bl	__ZNSt3__113basic_ostreamIcNS_11char_traitsIcEEElsEy
	ldr	x1, [sp, #248]                  ; 8-byte Folded Reload
	bl	__ZNSt3__1lsINS_11char_traitsIcEEEERNS_13basic_ostreamIcT_EES6_PKc
	ldr	x0, [sp, #296]                  ; 8-byte Folded Reload
	adrp	x1, l_.str.73@PAGE
	add	x1, x1, l_.str.73@PAGEOFF
	bl	__ZNSt3__1lsINS_11char_traitsIcEEEERNS_13basic_ostreamIcT_EES6_PKc
	ldr	x1, [sp, #312]                  ; 8-byte Folded Reload
	bl	__ZNSt3__113basic_ostreamIcNS_11char_traitsIcEEElsB6v15006EPFRNS_8ios_baseES5_E
	mov	x1, x0
	ldr	w0, [sp, #260]                  ; 4-byte Folded Reload
	str	x1, [sp, #216]                  ; 8-byte Folded Spill
	bl	__ZNSt3__17setfillB6v15006IcEENS_8__iom_t4IT_EES2_
	mov	x8, x0
	ldr	x0, [sp, #216]                  ; 8-byte Folded Reload
	add	x1, sp, #343
	strb	w8, [sp, #343]
	bl	__ZNSt3__1lsB6v15006INS_11char_traitsIcEEEERNS_13basic_ostreamIcT_EES6_RKNS_8__iom_t4IcEE
	mov	x1, x0
	ldr	w0, [sp, #276]                  ; 4-byte Folded Reload
	str	x1, [sp, #224]                  ; 8-byte Folded Spill
	bl	__ZNSt3__14setwB6v15006Ei
	mov	x8, x0
	ldr	x0, [sp, #224]                  ; 8-byte Folded Reload
	add	x1, sp, #336
	str	w8, [sp, #336]
	bl	__ZNSt3__1lsB6v15006IcNS_11char_traitsIcEEEERNS_13basic_ostreamIT_T0_EES7_RKNS_8__iom_t6E
	ldr	x1, [sp, #528]
	bl	__ZNSt3__113basic_ostreamIcNS_11char_traitsIcEEElsEy
	ldr	x1, [sp, #248]                  ; 8-byte Folded Reload
	bl	__ZNSt3__1lsINS_11char_traitsIcEEEERNS_13basic_ostreamIcT_EES6_PKc
	ldr	x0, [sp, #296]                  ; 8-byte Folded Reload
	adrp	x1, l_.str.74@PAGE
	add	x1, x1, l_.str.74@PAGEOFF
	bl	__ZNSt3__1lsINS_11char_traitsIcEEEERNS_13basic_ostreamIcT_EES6_PKc
	ldr	x1, [sp, #312]                  ; 8-byte Folded Reload
	bl	__ZNSt3__113basic_ostreamIcNS_11char_traitsIcEEElsB6v15006EPFRNS_8ios_baseES5_E
	mov	x1, x0
	ldr	w0, [sp, #260]                  ; 4-byte Folded Reload
	str	x1, [sp, #232]                  ; 8-byte Folded Spill
	bl	__ZNSt3__17setfillB6v15006IcEENS_8__iom_t4IT_EES2_
	mov	x8, x0
	ldr	x0, [sp, #232]                  ; 8-byte Folded Reload
	add	x1, sp, #335
	strb	w8, [sp, #335]
	bl	__ZNSt3__1lsB6v15006INS_11char_traitsIcEEEERNS_13basic_ostreamIcT_EES6_RKNS_8__iom_t4IcEE
	mov	x1, x0
	ldr	w0, [sp, #276]                  ; 4-byte Folded Reload
	str	x1, [sp, #240]                  ; 8-byte Folded Spill
	bl	__ZNSt3__14setwB6v15006Ei
	mov	x8, x0
	ldr	x0, [sp, #240]                  ; 8-byte Folded Reload
	add	x1, sp, #328
	str	w8, [sp, #328]
	bl	__ZNSt3__1lsB6v15006IcNS_11char_traitsIcEEEERNS_13basic_ostreamIT_T0_EES7_RKNS_8__iom_t6E
	ldr	x1, [sp, #528]
	bl	__ZNSt3__113basic_ostreamIcNS_11char_traitsIcEEElsEy
	ldr	x1, [sp, #248]                  ; 8-byte Folded Reload
	bl	__ZNSt3__1lsINS_11char_traitsIcEEEERNS_13basic_ostreamIcT_EES6_PKc
	ldr	x0, [sp, #296]                  ; 8-byte Folded Reload
	adrp	x1, l_.str.75@PAGE
	add	x1, x1, l_.str.75@PAGEOFF
	bl	__ZNSt3__1lsINS_11char_traitsIcEEEERNS_13basic_ostreamIcT_EES6_PKc
	ldr	x1, [sp, #312]                  ; 8-byte Folded Reload
	bl	__ZNSt3__113basic_ostreamIcNS_11char_traitsIcEEElsB6v15006EPFRNS_8ios_baseES5_E
	mov	x1, x0
	ldr	w0, [sp, #260]                  ; 4-byte Folded Reload
	str	x1, [sp, #264]                  ; 8-byte Folded Spill
	bl	__ZNSt3__17setfillB6v15006IcEENS_8__iom_t4IT_EES2_
	mov	x8, x0
	ldr	x0, [sp, #264]                  ; 8-byte Folded Reload
	add	x1, sp, #327
	strb	w8, [sp, #327]
	bl	__ZNSt3__1lsB6v15006INS_11char_traitsIcEEEERNS_13basic_ostreamIcT_EES6_RKNS_8__iom_t4IcEE
	mov	x1, x0
	ldr	w0, [sp, #276]                  ; 4-byte Folded Reload
	str	x1, [sp, #280]                  ; 8-byte Folded Spill
	bl	__ZNSt3__14setwB6v15006Ei
	mov	x8, x0
	ldr	x0, [sp, #280]                  ; 8-byte Folded Reload
	add	x1, sp, #320
	str	w8, [sp, #320]
	bl	__ZNSt3__1lsB6v15006IcNS_11char_traitsIcEEEERNS_13basic_ostreamIT_T0_EES7_RKNS_8__iom_t6E
	ldr	x1, [sp, #528]
	bl	__ZNSt3__113basic_ostreamIcNS_11char_traitsIcEEElsEy
	ldr	x1, [sp, #304]                  ; 8-byte Folded Reload
	bl	__ZNSt3__113basic_ostreamIcNS_11char_traitsIcEEElsB6v15006EPFRS3_S4_E
	ldur	x9, [x29, #-24]
	adrp	x8, ___stack_chk_guard@GOTPAGE
	ldr	x8, [x8, ___stack_chk_guard@GOTPAGEOFF]
	ldr	x8, [x8]
	subs	x8, x8, x9
	cset	w8, eq
	tbnz	w8, #0, LBB74_9
	b	LBB74_8
LBB74_8:
	bl	___stack_chk_fail
LBB74_9:
	add	sp, sp, #784
	ldp	x29, x30, [sp, #16]             ; 16-byte Folded Reload
	ldp	x28, x27, [sp], #32             ; 16-byte Folded Reload
	retab
LBB74_10:
	ldr	x0, [sp, #464]
	bl	__Unwind_Resume
Lfunc_end12:
	.cfi_endproc
	.section	__TEXT,__gcc_except_tab
	.p2align	2
GCC_except_table74:
Lexception12:
	.byte	255                             ; @LPStart Encoding = omit
	.byte	255                             ; @TType Encoding = omit
	.byte	1                               ; Call site Encoding = uleb128
	.uleb128 Lcst_end12-Lcst_begin12
Lcst_begin12:
	.uleb128 Lfunc_begin12-Lfunc_begin12    ; >> Call Site 1 <<
	.uleb128 Ltmp375-Lfunc_begin12          ;   Call between Lfunc_begin12 and Ltmp375
	.byte	0                               ;     has no landing pad
	.byte	0                               ;   On action: cleanup
	.uleb128 Ltmp375-Lfunc_begin12          ; >> Call Site 2 <<
	.uleb128 Ltmp376-Ltmp375                ;   Call between Ltmp375 and Ltmp376
	.uleb128 Ltmp377-Lfunc_begin12          ;     jumps to Ltmp377
	.byte	0                               ;   On action: cleanup
	.uleb128 Ltmp378-Lfunc_begin12          ; >> Call Site 3 <<
	.uleb128 Ltmp379-Ltmp378                ;   Call between Ltmp378 and Ltmp379
	.uleb128 Ltmp380-Lfunc_begin12          ;     jumps to Ltmp380
	.byte	0                               ;   On action: cleanup
	.uleb128 Ltmp379-Lfunc_begin12          ; >> Call Site 4 <<
	.uleb128 Lfunc_end12-Ltmp379            ;   Call between Ltmp379 and Lfunc_end12
	.byte	0                               ;     has no landing pad
	.byte	0                               ;   On action: cleanup
Lcst_end12:
	.p2align	2
                                        ; -- End function
	.section	__TEXT,__text,regular,pure_instructions
	.private_extern	__ZNSt3__113basic_ostreamIcNS_11char_traitsIcEEElsB6v15006EPFRNS_8ios_baseES5_E ; -- Begin function _ZNSt3__113basic_ostreamIcNS_11char_traitsIcEEElsB6v15006EPFRNS_8ios_baseES5_E
	.globl	__ZNSt3__113basic_ostreamIcNS_11char_traitsIcEEElsB6v15006EPFRNS_8ios_baseES5_E
	.weak_definition	__ZNSt3__113basic_ostreamIcNS_11char_traitsIcEEElsB6v15006EPFRNS_8ios_baseES5_E
	.p2align	2
__ZNSt3__113basic_ostreamIcNS_11char_traitsIcEEElsB6v15006EPFRNS_8ios_baseES5_E: ; @_ZNSt3__113basic_ostreamIcNS_11char_traitsIcEEElsB6v15006EPFRNS_8ios_baseES5_E
	.cfi_startproc
; %bb.0:
	pacibsp
	sub	sp, sp, #48
	.cfi_def_cfa_offset 48
	stp	x29, x30, [sp, #32]             ; 16-byte Folded Spill
	add	x29, sp, #32
	.cfi_def_cfa w29, 16
	.cfi_offset w30, -8
	.cfi_offset w29, -16
	stur	x0, [x29, #-8]
	str	x1, [sp, #16]
	ldur	x9, [x29, #-8]
	str	x9, [sp, #8]                    ; 8-byte Folded Spill
	ldr	x8, [sp, #16]
	ldr	x16, [x9]
	mov	x10, x9
	mov	x17, x10
	movk	x17, #53388, lsl #48
	autda	x16, x17
	ldur	x10, [x16, #-24]
	add	x0, x9, x10
	blraaz	x8
	ldr	x0, [sp, #8]                    ; 8-byte Folded Reload
	ldp	x29, x30, [sp, #32]             ; 16-byte Folded Reload
	add	sp, sp, #48
	retab
	.cfi_endproc
                                        ; -- End function
	.globl	__ZNSt3__13hexERNS_8ios_baseE   ; -- Begin function _ZNSt3__13hexERNS_8ios_baseE
	.weak_definition	__ZNSt3__13hexERNS_8ios_baseE
	.p2align	2
__ZNSt3__13hexERNS_8ios_baseE:          ; @_ZNSt3__13hexERNS_8ios_baseE
	.cfi_startproc
; %bb.0:
	pacibsp
	sub	sp, sp, #32
	.cfi_def_cfa_offset 32
	stp	x29, x30, [sp, #16]             ; 16-byte Folded Spill
	add	x29, sp, #16
	.cfi_def_cfa w29, 16
	.cfi_offset w30, -8
	.cfi_offset w29, -16
	str	x0, [sp, #8]
	ldr	x0, [sp, #8]
	mov	w1, #8
	mov	w2, #74
	bl	__ZNSt3__18ios_base4setfB6v15006Ejj
	ldr	x0, [sp, #8]
	ldp	x29, x30, [sp, #16]             ; 16-byte Folded Reload
	add	sp, sp, #32
	retab
	.cfi_endproc
                                        ; -- End function
	.globl	_main                           ; -- Begin function main
	.p2align	2
_main:                                  ; @main
Lfunc_begin13:
	.cfi_startproc
	.cfi_personality 155, ___gxx_personality_v0
	.cfi_lsda 16, Lexception13
; %bb.0:
	pacibsp
	sub	sp, sp, #432
	.cfi_def_cfa_offset 432
	stp	x28, x27, [sp, #400]            ; 16-byte Folded Spill
	stp	x29, x30, [sp, #416]            ; 16-byte Folded Spill
	add	x29, sp, #416
	.cfi_def_cfa w29, 16
	.cfi_offset w30, -8
	.cfi_offset w29, -16
	.cfi_offset w27, -24
	.cfi_offset w28, -32
                                        ; implicit-def: $x16
                                        ; implicit-def: $x17
	adrp	x16, __Z11exitHandleri@PAGE
	add	x16, x16, __Z11exitHandleri@PAGEOFF
	paciza	x16
	str	x16, [sp, #120]                 ; 8-byte Folded Spill
                                        ; implicit-def: $x16
                                        ; implicit-def: $x17
	adrp	x16, __Z12errorHandleri@PAGE
	add	x16, x16, __Z12errorHandleri@PAGEOFF
	paciza	x16
	str	x16, [sp, #128]                 ; 8-byte Folded Spill
	adrp	x8, __ZNSt3__15wcoutE@GOTPAGE
	ldr	x8, [x8, __ZNSt3__15wcoutE@GOTPAGEOFF]
	str	x8, [sp, #88]                   ; 8-byte Folded Spill
	str	x8, [sp, #96]                   ; 8-byte Folded Spill
                                        ; implicit-def: $x16
                                        ; implicit-def: $x17
	adrp	x16, __ZNSt3__14endlIcNS_11char_traitsIcEEEERNS_13basic_ostreamIT_T0_EES7_@GOTPAGE
	ldr	x16, [x16, __ZNSt3__14endlIcNS_11char_traitsIcEEEERNS_13basic_ostreamIT_T0_EES7_@GOTPAGEOFF]
	paciza	x16
	str	x16, [sp, #104]                 ; 8-byte Folded Spill
	stur	wzr, [x29, #-20]
	stur	w0, [x29, #-24]
	stur	x1, [x29, #-32]
	mov	x0, #72
	bl	__Znwm
	str	x0, [sp, #112]                  ; 8-byte Folded Spill
	bl	__ZN11GameContextC1Ev
	ldr	x0, [sp, #112]                  ; 8-byte Folded Reload
	ldr	x16, [sp, #120]                 ; 8-byte Folded Reload
	adrp	x8, _context@PAGE
	str	x8, [sp, #144]                  ; 8-byte Folded Spill
	str	x0, [x8, _context@PAGEOFF]
	sub	x1, x29, #48
	stur	x16, [x29, #-48]
	stur	wzr, [x29, #-40]
	stur	wzr, [x29, #-36]
	mov	w0, #2
	mov	x2, #0
	bl	_sigaction
	ldr	x1, [sp, #128]                  ; 8-byte Folded Reload
	mov	w0, #6
	bl	_signal
	ldr	x1, [sp, #128]                  ; 8-byte Folded Reload
	mov	w0, #14
	bl	_signal
	ldr	x8, [sp, #144]                  ; 8-byte Folded Reload
	ldr	x0, [x8, _context@PAGEOFF]
	mov	w1, #1
	bl	__ZN11GameContext10createFontEi
	ldr	x8, [sp, #144]                  ; 8-byte Folded Reload
	ldr	x0, [x8, _context@PAGEOFF]
	ldr	x8, [x8, _context@PAGEOFF]
	ldr	x1, [x8, #64]
	bl	__ZN11GameContext11getFontTypeEPv
	stur	w0, [x29, #-52]
	mov	x0, #1
	str	x0, [sp, #136]                  ; 8-byte Folded Spill
	bl	__Znwm
	ldr	x9, [sp, #144]                  ; 8-byte Folded Reload
	mov	x8, x0
	ldr	x0, [sp, #136]                  ; 8-byte Folded Reload
	ldr	x9, [x9, _context@PAGEOFF]
	str	x8, [x9]
	bl	__Znwm
	ldr	x8, [sp, #144]                  ; 8-byte Folded Reload
	ldr	x8, [x8, _context@PAGEOFF]
	str	x0, [x8, #8]
	mov	x0, #8
	bl	__Znwm
	str	x0, [sp, #152]                  ; 8-byte Folded Spill
Ltmp382:
	bl	__ZN11SnakeSenzia6ConfigC1Ev
Ltmp383:
	b	LBB77_1
LBB77_1:
	ldr	x8, [sp, #152]                  ; 8-byte Folded Reload
	adrp	x9, _context@PAGE
	str	x9, [sp, #72]                   ; 8-byte Folded Spill
	ldr	x9, [x9, _context@PAGEOFF]
	str	x8, [x9, #56]
	mov	x0, #1
	str	x0, [sp, #64]                   ; 8-byte Folded Spill
	bl	__Znwm
	ldr	x9, [sp, #72]                   ; 8-byte Folded Reload
	mov	x8, x0
	ldr	x0, [sp, #64]                   ; 8-byte Folded Reload
	ldr	x9, [x9, _context@PAGEOFF]
	str	x8, [x9, #24]
	bl	__Znwm
	ldr	x9, [sp, #72]                   ; 8-byte Folded Reload
	mov	x8, x0
	ldr	x0, [sp, #64]                   ; 8-byte Folded Reload
	ldr	x9, [x9, _context@PAGEOFF]
	str	x8, [x9, #16]
	bl	__Znwm
	ldr	x9, [sp, #72]                   ; 8-byte Folded Reload
	mov	x8, x0
	ldr	x0, [sp, #64]                   ; 8-byte Folded Reload
	ldr	x9, [x9, _context@PAGEOFF]
	str	x8, [x9, #32]
	bl	__Znwm
	ldr	x9, [sp, #72]                   ; 8-byte Folded Reload
	mov	x8, x0
	ldr	x0, [sp, #64]                   ; 8-byte Folded Reload
	ldr	x9, [x9, _context@PAGEOFF]
	str	x8, [x9, #40]
	bl	__Znwm
	ldr	x8, [sp, #72]                   ; 8-byte Folded Reload
	ldr	x8, [x8, _context@PAGEOFF]
	str	x0, [x8, #48]
	sub	x0, x29, #80
	str	x0, [sp, #80]                   ; 8-byte Folded Spill
	adrp	x1, l_.str.76@PAGE
	add	x1, x1, l_.str.76@PAGEOFF
	bl	__ZNSt3__16localeC1EPKc
	ldr	x9, [sp, #96]                   ; 8-byte Folded Reload
	ldr	x8, [sp, #88]                   ; 8-byte Folded Reload
	ldr	x1, [sp, #80]                   ; 8-byte Folded Reload
	ldr	x16, [x8]
	mov	x17, x9
	movk	x17, #45073, lsl #48
	autda	x16, x17
	ldur	x9, [x16, #-24]
	add	x0, x8, x9
Ltmp385:
	sub	x8, x29, #88
	bl	__ZNSt3__19basic_iosIwNS_11char_traitsIwEEE5imbueB6v15006ERKNS_6localeE
Ltmp386:
	b	LBB77_2
LBB77_2:
	sub	x0, x29, #88
	bl	__ZNSt3__16localeD1Ev
	adrp	x8, _context@PAGE
	ldr	x8, [x8, _context@PAGEOFF]
	ldr	x0, [x8, #8]
Ltmp387:
	bl	__ZN11SnakeSenzia4Core17detectConsoleSizeEv
Ltmp388:
	b	LBB77_3
LBB77_3:
	adrp	x8, _context@PAGE
	ldr	x8, [x8, _context@PAGEOFF]
	ldr	x0, [x8, #56]
Ltmp389:
	bl	__ZN11SnakeSenzia6Config7getSizeEv
	str	x0, [sp, #56]                   ; 8-byte Folded Spill
Ltmp390:
	b	LBB77_4
LBB77_4:
	ldr	x8, [sp, #56]                   ; 8-byte Folded Reload
	stur	x8, [x29, #-96]
	ldur	x8, [x29, #-96]
	ldr	w1, [x8]
Ltmp391:
	adrp	x0, __ZNSt3__14coutE@GOTPAGE
	ldr	x0, [x0, __ZNSt3__14coutE@GOTPAGEOFF]
	bl	__ZNSt3__113basic_ostreamIcNS_11char_traitsIcEEElsEi
	str	x0, [sp, #48]                   ; 8-byte Folded Spill
Ltmp392:
	b	LBB77_5
LBB77_5:
Ltmp393:
	ldr	x0, [sp, #48]                   ; 8-byte Folded Reload
	adrp	x1, l_.str.38@PAGE
	add	x1, x1, l_.str.38@PAGEOFF
	bl	__ZNSt3__1lsINS_11char_traitsIcEEEERNS_13basic_ostreamIcT_EES6_PKc
	str	x0, [sp, #40]                   ; 8-byte Folded Spill
Ltmp394:
	b	LBB77_6
LBB77_6:
	ldr	x0, [sp, #40]                   ; 8-byte Folded Reload
	ldur	x8, [x29, #-96]
	ldr	w1, [x8, #4]
Ltmp395:
	bl	__ZNSt3__113basic_ostreamIcNS_11char_traitsIcEEElsEi
	str	x0, [sp, #32]                   ; 8-byte Folded Spill
Ltmp396:
	b	LBB77_7
LBB77_7:
Ltmp397:
	ldr	x1, [sp, #104]                  ; 8-byte Folded Reload
	ldr	x0, [sp, #32]                   ; 8-byte Folded Reload
	bl	__ZNSt3__113basic_ostreamIcNS_11char_traitsIcEEElsB6v15006EPFRS3_S4_E
Ltmp398:
	b	LBB77_8
LBB77_8:
	adrp	x8, _context@PAGE
	ldr	x8, [x8, _context@PAGEOFF]
	ldr	x8, [x8, #16]
	str	x8, [sp, #24]                   ; 8-byte Folded Spill
Ltmp399:
	sub	x0, x29, #120
	adrp	x1, l_.str.44@PAGE
	add	x1, x1, l_.str.44@PAGEOFF
	bl	__ZNSt3__112basic_stringIcNS_11char_traitsIcEENS_9allocatorIcEEEC1B6v15006IDnEEPKc
Ltmp400:
	b	LBB77_9
LBB77_9:
	ldur	x8, [x29, #-96]
	ldr	w0, [x8]
Ltmp401:
	sub	x8, x29, #168
	bl	__ZNSt3__19to_stringEi
Ltmp402:
	b	LBB77_10
LBB77_10:
Ltmp404:
	sub	x8, x29, #144
	adrp	x0, l_.str.77@PAGE
	add	x0, x0, l_.str.77@PAGEOFF
	sub	x1, x29, #168
	bl	__ZNSt3__1plB6v15006IcNS_11char_traitsIcEENS_9allocatorIcEEEENS_12basic_stringIT_T0_T1_EEPKS6_OS9_
Ltmp405:
	b	LBB77_11
LBB77_11:
	ldr	x0, [sp, #24]                   ; 8-byte Folded Reload
	adrp	x8, _context@PAGE
	ldr	x8, [x8, _context@PAGEOFF]
	ldr	x3, [x8, #24]
Ltmp407:
	sub	x1, x29, #120
	sub	x2, x29, #144
	bl	__ZN11SnakeSenzia7Logging8printLogENSt3__112basic_stringIcNS1_11char_traitsIcEENS1_9allocatorIcEEEES7_PNS_5TimerE
Ltmp408:
	b	LBB77_12
LBB77_12:
	sub	x0, x29, #144
	bl	__ZNSt3__112basic_stringIcNS_11char_traitsIcEENS_9allocatorIcEEED1Ev
	sub	x0, x29, #168
	bl	__ZNSt3__112basic_stringIcNS_11char_traitsIcEENS_9allocatorIcEEED1Ev
	sub	x0, x29, #120
	bl	__ZNSt3__112basic_stringIcNS_11char_traitsIcEENS_9allocatorIcEEED1Ev
	adrp	x8, _context@PAGE
	ldr	x8, [x8, _context@PAGEOFF]
	ldr	x8, [x8, #16]
	str	x8, [sp, #16]                   ; 8-byte Folded Spill
Ltmp410:
	sub	x0, x29, #192
	adrp	x1, l_.str.44@PAGE
	add	x1, x1, l_.str.44@PAGEOFF
	bl	__ZNSt3__112basic_stringIcNS_11char_traitsIcEENS_9allocatorIcEEEC1B6v15006IDnEEPKc
Ltmp411:
	b	LBB77_13
LBB77_13:
	ldur	x8, [x29, #-96]
	ldr	w0, [x8, #4]
Ltmp412:
	add	x8, sp, #176
	bl	__ZNSt3__19to_stringEi
Ltmp413:
	b	LBB77_14
LBB77_14:
Ltmp415:
	add	x8, sp, #200
	adrp	x0, l_.str.78@PAGE
	add	x0, x0, l_.str.78@PAGEOFF
	add	x1, sp, #176
	bl	__ZNSt3__1plB6v15006IcNS_11char_traitsIcEENS_9allocatorIcEEEENS_12basic_stringIT_T0_T1_EEPKS6_OS9_
Ltmp416:
	b	LBB77_15
LBB77_15:
	ldr	x0, [sp, #16]                   ; 8-byte Folded Reload
	adrp	x8, _context@PAGE
	ldr	x8, [x8, _context@PAGEOFF]
	ldr	x3, [x8, #24]
Ltmp418:
	sub	x1, x29, #192
	add	x2, sp, #200
	bl	__ZN11SnakeSenzia7Logging8printLogENSt3__112basic_stringIcNS1_11char_traitsIcEENS1_9allocatorIcEEEES7_PNS_5TimerE
Ltmp419:
	b	LBB77_16
LBB77_16:
	add	x0, sp, #200
	bl	__ZNSt3__112basic_stringIcNS_11char_traitsIcEENS_9allocatorIcEEED1Ev
	add	x0, sp, #176
	bl	__ZNSt3__112basic_stringIcNS_11char_traitsIcEENS_9allocatorIcEEED1Ev
	sub	x0, x29, #192
	bl	__ZNSt3__112basic_stringIcNS_11char_traitsIcEENS_9allocatorIcEEED1Ev
	adrp	x8, _context@PAGE
	ldr	x8, [x8, _context@PAGEOFF]
	ldr	x0, [x8, #8]
Ltmp421:
	bl	__ZN11SnakeSenzia4Core10initializeEv
Ltmp422:
	b	LBB77_17
LBB77_17:
	ldur	w8, [x29, #-52]
	subs	w8, w8, #0
	cset	w8, ne
	tbnz	w8, #0, LBB77_36
	b	LBB77_18
LBB77_18:
Ltmp432:
	mov	x0, #32
	bl	__Znwm
	str	x0, [sp, #8]                    ; 8-byte Folded Spill
Ltmp433:
	b	LBB77_19
LBB77_19:
Ltmp434:
	ldr	x0, [sp, #8]                    ; 8-byte Folded Reload
	mov	w2, #20
	mov	x1, x2
	bl	__ZN4FontIcEC1Eii
Ltmp435:
	b	LBB77_20
LBB77_20:
	ldr	x9, [sp, #8]                    ; 8-byte Folded Reload
	adrp	x8, _context@PAGE
	ldr	x10, [x8, _context@PAGEOFF]
	str	x9, [x10, #64]
	ldr	x8, [x8, _context@PAGEOFF]
	ldr	x8, [x8, #64]
	str	x8, [sp, #168]
	ldr	x0, [sp, #168]
Ltmp437:
	mov	w2, #1
	mov	x1, x2
	mov	w3, #65
	bl	__ZN4FontIcE12setCharacterEiic
Ltmp438:
	b	LBB77_21
LBB77_21:
	ldr	x0, [sp, #168]
Ltmp439:
	bl	__ZNK4FontIcE7displayEv
Ltmp440:
	b	LBB77_22
LBB77_22:
	b	LBB77_44
LBB77_23:
Ltmp384:
	mov	x9, x0
	ldr	x0, [sp, #152]                  ; 8-byte Folded Reload
	mov	x8, x1
	stur	x9, [x29, #-64]
	stur	w8, [x29, #-68]
	bl	__ZdlPv
	b	LBB77_47
LBB77_24:
Ltmp441:
	mov	x8, x1
	stur	x0, [x29, #-64]
	stur	w8, [x29, #-68]
	b	LBB77_46
LBB77_25:
Ltmp403:
	mov	x8, x1
	stur	x0, [x29, #-64]
	stur	w8, [x29, #-68]
	b	LBB77_29
LBB77_26:
Ltmp406:
	mov	x8, x1
	stur	x0, [x29, #-64]
	stur	w8, [x29, #-68]
	b	LBB77_28
LBB77_27:
Ltmp409:
	mov	x8, x1
	stur	x0, [x29, #-64]
	stur	w8, [x29, #-68]
	sub	x0, x29, #144
	bl	__ZNSt3__112basic_stringIcNS_11char_traitsIcEENS_9allocatorIcEEED1Ev
	b	LBB77_28
LBB77_28:
	sub	x0, x29, #168
	bl	__ZNSt3__112basic_stringIcNS_11char_traitsIcEENS_9allocatorIcEEED1Ev
	b	LBB77_29
LBB77_29:
	sub	x0, x29, #120
	bl	__ZNSt3__112basic_stringIcNS_11char_traitsIcEENS_9allocatorIcEEED1Ev
	b	LBB77_46
LBB77_30:
Ltmp414:
	mov	x8, x1
	stur	x0, [x29, #-64]
	stur	w8, [x29, #-68]
	b	LBB77_34
LBB77_31:
Ltmp417:
	mov	x8, x1
	stur	x0, [x29, #-64]
	stur	w8, [x29, #-68]
	b	LBB77_33
LBB77_32:
Ltmp420:
	mov	x8, x1
	stur	x0, [x29, #-64]
	stur	w8, [x29, #-68]
	add	x0, sp, #200
	bl	__ZNSt3__112basic_stringIcNS_11char_traitsIcEENS_9allocatorIcEEED1Ev
	b	LBB77_33
LBB77_33:
	add	x0, sp, #176
	bl	__ZNSt3__112basic_stringIcNS_11char_traitsIcEENS_9allocatorIcEEED1Ev
	b	LBB77_34
LBB77_34:
	sub	x0, x29, #192
	bl	__ZNSt3__112basic_stringIcNS_11char_traitsIcEENS_9allocatorIcEEED1Ev
	b	LBB77_46
LBB77_35:
Ltmp436:
	mov	x9, x0
	ldr	x0, [sp, #8]                    ; 8-byte Folded Reload
	mov	x8, x1
	stur	x9, [x29, #-64]
	stur	w8, [x29, #-68]
	bl	__ZdlPv
	b	LBB77_46
LBB77_36:
	ldur	w8, [x29, #-52]
	subs	w8, w8, #1
	cset	w8, ne
	tbnz	w8, #0, LBB77_43
	b	LBB77_37
LBB77_37:
Ltmp423:
	mov	x0, #32
	bl	__Znwm
	str	x0, [sp]                        ; 8-byte Folded Spill
Ltmp424:
	b	LBB77_38
LBB77_38:
Ltmp425:
	ldr	x0, [sp]                        ; 8-byte Folded Reload
	mov	w2, #10
	mov	x1, x2
	bl	__ZN4FontIwEC1Eii
Ltmp426:
	b	LBB77_39
LBB77_39:
	ldr	x9, [sp]                        ; 8-byte Folded Reload
	adrp	x8, _context@PAGE
	ldr	x10, [x8, _context@PAGEOFF]
	str	x9, [x10, #64]
	ldr	x8, [x8, _context@PAGEOFF]
	ldr	x8, [x8, #64]
	str	x8, [sp, #160]
	ldr	x0, [sp, #160]
Ltmp428:
	mov	w2, #1
	mov	x1, x2
	mov	w3, #65
	bl	__ZN4FontIwE12setCharacterEiiw
Ltmp429:
	b	LBB77_40
LBB77_40:
	ldr	x0, [sp, #160]
Ltmp430:
	bl	__ZNK4FontIwE7displayEv
Ltmp431:
	b	LBB77_41
LBB77_41:
	b	LBB77_43
LBB77_42:
Ltmp427:
	mov	x9, x0
	ldr	x0, [sp]                        ; 8-byte Folded Reload
	mov	x8, x1
	stur	x9, [x29, #-64]
	stur	w8, [x29, #-68]
	bl	__ZdlPv
	b	LBB77_46
LBB77_43:
	b	LBB77_44
LBB77_44:
	b	LBB77_45
LBB77_45:                               ; =>This Inner Loop Header: Depth=1
	b	LBB77_45
LBB77_46:
	sub	x0, x29, #80
	bl	__ZNSt3__16localeD1Ev
	b	LBB77_47
LBB77_47:
	ldur	x0, [x29, #-64]
	bl	__Unwind_Resume
Lfunc_end13:
	.cfi_endproc
	.section	__TEXT,__gcc_except_tab
	.p2align	2
GCC_except_table77:
Lexception13:
	.byte	255                             ; @LPStart Encoding = omit
	.byte	255                             ; @TType Encoding = omit
	.byte	1                               ; Call site Encoding = uleb128
	.uleb128 Lcst_end13-Lcst_begin13
Lcst_begin13:
	.uleb128 Lfunc_begin13-Lfunc_begin13    ; >> Call Site 1 <<
	.uleb128 Ltmp382-Lfunc_begin13          ;   Call between Lfunc_begin13 and Ltmp382
	.byte	0                               ;     has no landing pad
	.byte	0                               ;   On action: cleanup
	.uleb128 Ltmp382-Lfunc_begin13          ; >> Call Site 2 <<
	.uleb128 Ltmp383-Ltmp382                ;   Call between Ltmp382 and Ltmp383
	.uleb128 Ltmp384-Lfunc_begin13          ;     jumps to Ltmp384
	.byte	0                               ;   On action: cleanup
	.uleb128 Ltmp383-Lfunc_begin13          ; >> Call Site 3 <<
	.uleb128 Ltmp385-Ltmp383                ;   Call between Ltmp383 and Ltmp385
	.byte	0                               ;     has no landing pad
	.byte	0                               ;   On action: cleanup
	.uleb128 Ltmp385-Lfunc_begin13          ; >> Call Site 4 <<
	.uleb128 Ltmp400-Ltmp385                ;   Call between Ltmp385 and Ltmp400
	.uleb128 Ltmp441-Lfunc_begin13          ;     jumps to Ltmp441
	.byte	0                               ;   On action: cleanup
	.uleb128 Ltmp401-Lfunc_begin13          ; >> Call Site 5 <<
	.uleb128 Ltmp402-Ltmp401                ;   Call between Ltmp401 and Ltmp402
	.uleb128 Ltmp403-Lfunc_begin13          ;     jumps to Ltmp403
	.byte	0                               ;   On action: cleanup
	.uleb128 Ltmp404-Lfunc_begin13          ; >> Call Site 6 <<
	.uleb128 Ltmp405-Ltmp404                ;   Call between Ltmp404 and Ltmp405
	.uleb128 Ltmp406-Lfunc_begin13          ;     jumps to Ltmp406
	.byte	0                               ;   On action: cleanup
	.uleb128 Ltmp407-Lfunc_begin13          ; >> Call Site 7 <<
	.uleb128 Ltmp408-Ltmp407                ;   Call between Ltmp407 and Ltmp408
	.uleb128 Ltmp409-Lfunc_begin13          ;     jumps to Ltmp409
	.byte	0                               ;   On action: cleanup
	.uleb128 Ltmp410-Lfunc_begin13          ; >> Call Site 8 <<
	.uleb128 Ltmp411-Ltmp410                ;   Call between Ltmp410 and Ltmp411
	.uleb128 Ltmp441-Lfunc_begin13          ;     jumps to Ltmp441
	.byte	0                               ;   On action: cleanup
	.uleb128 Ltmp412-Lfunc_begin13          ; >> Call Site 9 <<
	.uleb128 Ltmp413-Ltmp412                ;   Call between Ltmp412 and Ltmp413
	.uleb128 Ltmp414-Lfunc_begin13          ;     jumps to Ltmp414
	.byte	0                               ;   On action: cleanup
	.uleb128 Ltmp415-Lfunc_begin13          ; >> Call Site 10 <<
	.uleb128 Ltmp416-Ltmp415                ;   Call between Ltmp415 and Ltmp416
	.uleb128 Ltmp417-Lfunc_begin13          ;     jumps to Ltmp417
	.byte	0                               ;   On action: cleanup
	.uleb128 Ltmp418-Lfunc_begin13          ; >> Call Site 11 <<
	.uleb128 Ltmp419-Ltmp418                ;   Call between Ltmp418 and Ltmp419
	.uleb128 Ltmp420-Lfunc_begin13          ;     jumps to Ltmp420
	.byte	0                               ;   On action: cleanup
	.uleb128 Ltmp421-Lfunc_begin13          ; >> Call Site 12 <<
	.uleb128 Ltmp433-Ltmp421                ;   Call between Ltmp421 and Ltmp433
	.uleb128 Ltmp441-Lfunc_begin13          ;     jumps to Ltmp441
	.byte	0                               ;   On action: cleanup
	.uleb128 Ltmp434-Lfunc_begin13          ; >> Call Site 13 <<
	.uleb128 Ltmp435-Ltmp434                ;   Call between Ltmp434 and Ltmp435
	.uleb128 Ltmp436-Lfunc_begin13          ;     jumps to Ltmp436
	.byte	0                               ;   On action: cleanup
	.uleb128 Ltmp437-Lfunc_begin13          ; >> Call Site 14 <<
	.uleb128 Ltmp424-Ltmp437                ;   Call between Ltmp437 and Ltmp424
	.uleb128 Ltmp441-Lfunc_begin13          ;     jumps to Ltmp441
	.byte	0                               ;   On action: cleanup
	.uleb128 Ltmp425-Lfunc_begin13          ; >> Call Site 15 <<
	.uleb128 Ltmp426-Ltmp425                ;   Call between Ltmp425 and Ltmp426
	.uleb128 Ltmp427-Lfunc_begin13          ;     jumps to Ltmp427
	.byte	0                               ;   On action: cleanup
	.uleb128 Ltmp428-Lfunc_begin13          ; >> Call Site 16 <<
	.uleb128 Ltmp431-Ltmp428                ;   Call between Ltmp428 and Ltmp431
	.uleb128 Ltmp441-Lfunc_begin13          ;     jumps to Ltmp441
	.byte	0                               ;   On action: cleanup
	.uleb128 Ltmp431-Lfunc_begin13          ; >> Call Site 17 <<
	.uleb128 Lfunc_end13-Ltmp431            ;   Call between Ltmp431 and Lfunc_end13
	.byte	0                               ;     has no landing pad
	.byte	0                               ;   On action: cleanup
Lcst_end13:
	.p2align	2
                                        ; -- End function
	.section	__TEXT,__text,regular,pure_instructions
	.globl	__ZN11GameContextC1Ev           ; -- Begin function _ZN11GameContextC1Ev
	.weak_def_can_be_hidden	__ZN11GameContextC1Ev
	.p2align	2
__ZN11GameContextC1Ev:                  ; @_ZN11GameContextC1Ev
	.cfi_startproc
; %bb.0:
	pacibsp
	sub	sp, sp, #32
	.cfi_def_cfa_offset 32
	stp	x29, x30, [sp, #16]             ; 16-byte Folded Spill
	add	x29, sp, #16
	.cfi_def_cfa w29, 16
	.cfi_offset w30, -8
	.cfi_offset w29, -16
	str	x0, [sp, #8]
	ldr	x0, [sp, #8]
	str	x0, [sp]                        ; 8-byte Folded Spill
	bl	__ZN11GameContextC2Ev
	ldr	x0, [sp]                        ; 8-byte Folded Reload
	ldp	x29, x30, [sp, #16]             ; 16-byte Folded Reload
	add	sp, sp, #32
	retab
	.cfi_endproc
                                        ; -- End function
	.globl	__ZN11GameContext10createFontEi ; -- Begin function _ZN11GameContext10createFontEi
	.weak_definition	__ZN11GameContext10createFontEi
	.p2align	2
__ZN11GameContext10createFontEi:        ; @_ZN11GameContext10createFontEi
	.cfi_startproc
; %bb.0:
	sub	sp, sp, #48
	.cfi_def_cfa_offset 48
	str	x0, [sp, #40]
	str	w1, [sp, #36]
	ldr	x8, [sp, #40]
	str	x8, [sp, #8]                    ; 8-byte Folded Spill
	ldr	w8, [sp, #36]
	subs	w8, w8, #0
	cset	w8, ne
	tbnz	w8, #0, LBB79_2
	b	LBB79_1
LBB79_1:
	ldr	x9, [sp, #8]                    ; 8-byte Folded Reload
                                        ; kill: def $x8 killed $xzr
	str	xzr, [sp, #24]
	ldr	x8, [sp, #24]
	str	x8, [x9, #64]
	b	LBB79_5
LBB79_2:
	ldr	w8, [sp, #36]
	subs	w8, w8, #1
	cset	w8, ne
	tbnz	w8, #0, LBB79_4
	b	LBB79_3
LBB79_3:
	ldr	x9, [sp, #8]                    ; 8-byte Folded Reload
                                        ; kill: def $x8 killed $xzr
	str	xzr, [sp, #16]
	ldr	x8, [sp, #16]
	str	x8, [x9, #64]
	b	LBB79_4
LBB79_4:
	b	LBB79_5
LBB79_5:
	add	sp, sp, #48
	ret
	.cfi_endproc
                                        ; -- End function
	.globl	__ZN11GameContext11getFontTypeEPv ; -- Begin function _ZN11GameContext11getFontTypeEPv
	.weak_definition	__ZN11GameContext11getFontTypeEPv
	.p2align	2
__ZN11GameContext11getFontTypeEPv:      ; @_ZN11GameContext11getFontTypeEPv
	.cfi_startproc
; %bb.0:
	pacibsp
	sub	sp, sp, #48
	.cfi_def_cfa_offset 48
	stp	x29, x30, [sp, #32]             ; 16-byte Folded Spill
	add	x29, sp, #32
	.cfi_def_cfa w29, 16
	.cfi_offset w30, -8
	.cfi_offset w29, -16
	str	x0, [sp, #16]
	str	x1, [sp, #8]
	adrp	x1, __ZTI4FontIcE@PAGE
	add	x1, x1, __ZTI4FontIcE@PAGEOFF
	mov	x0, x1
	bl	__ZNKSt9type_infoeqB6v15006ERKS_
	tbz	w0, #0, LBB80_2
	b	LBB80_1
LBB80_1:
	stur	wzr, [x29, #-4]
	b	LBB80_5
LBB80_2:
	adrp	x1, __ZTI4FontIwE@PAGE
	add	x1, x1, __ZTI4FontIwE@PAGEOFF
	mov	x0, x1
	bl	__ZNKSt9type_infoeqB6v15006ERKS_
	tbz	w0, #0, LBB80_4
	b	LBB80_3
LBB80_3:
	mov	w8, #1
	stur	w8, [x29, #-4]
	b	LBB80_5
LBB80_4:
	mov	w8, #65535
	stur	w8, [x29, #-4]
	b	LBB80_5
LBB80_5:
	ldur	w0, [x29, #-4]
	ldp	x29, x30, [sp, #32]             ; 16-byte Folded Reload
	add	sp, sp, #48
	retab
	.cfi_endproc
                                        ; -- End function
	.globl	__ZN11SnakeSenzia6ConfigC1Ev    ; -- Begin function _ZN11SnakeSenzia6ConfigC1Ev
	.weak_def_can_be_hidden	__ZN11SnakeSenzia6ConfigC1Ev
	.p2align	2
__ZN11SnakeSenzia6ConfigC1Ev:           ; @_ZN11SnakeSenzia6ConfigC1Ev
	.cfi_startproc
; %bb.0:
	pacibsp
	sub	sp, sp, #32
	.cfi_def_cfa_offset 32
	stp	x29, x30, [sp, #16]             ; 16-byte Folded Spill
	add	x29, sp, #16
	.cfi_def_cfa w29, 16
	.cfi_offset w30, -8
	.cfi_offset w29, -16
	str	x0, [sp, #8]
	ldr	x0, [sp, #8]
	str	x0, [sp]                        ; 8-byte Folded Spill
	bl	__ZN11SnakeSenzia6ConfigC2Ev
	ldr	x0, [sp]                        ; 8-byte Folded Reload
	ldp	x29, x30, [sp, #16]             ; 16-byte Folded Reload
	add	sp, sp, #32
	retab
	.cfi_endproc
                                        ; -- End function
	.private_extern	__ZNSt3__19basic_iosIwNS_11char_traitsIwEEE5imbueB6v15006ERKNS_6localeE ; -- Begin function _ZNSt3__19basic_iosIwNS_11char_traitsIwEEE5imbueB6v15006ERKNS_6localeE
	.globl	__ZNSt3__19basic_iosIwNS_11char_traitsIwEEE5imbueB6v15006ERKNS_6localeE
	.weak_definition	__ZNSt3__19basic_iosIwNS_11char_traitsIwEEE5imbueB6v15006ERKNS_6localeE
	.p2align	2
__ZNSt3__19basic_iosIwNS_11char_traitsIwEEE5imbueB6v15006ERKNS_6localeE: ; @_ZNSt3__19basic_iosIwNS_11char_traitsIwEEE5imbueB6v15006ERKNS_6localeE
Lfunc_begin14:
	.cfi_startproc
	.cfi_personality 155, ___gxx_personality_v0
	.cfi_lsda 16, Lexception14
; %bb.0:
	pacibsp
	sub	sp, sp, #96
	.cfi_def_cfa_offset 96
	stp	x29, x30, [sp, #80]             ; 16-byte Folded Spill
	add	x29, sp, #80
	.cfi_def_cfa w29, 16
	.cfi_offset w30, -8
	.cfi_offset w29, -16
	str	x8, [sp]                        ; 8-byte Folded Spill
	mov	x9, x8
	stur	x9, [x29, #-8]
	stur	x0, [x29, #-16]
	stur	x1, [x29, #-24]
	ldur	x0, [x29, #-16]
	str	x0, [sp, #8]                    ; 8-byte Folded Spill
	mov	w9, #0
	and	w9, w9, #0x1
	and	w9, w9, #0x1
	sturb	w9, [x29, #-25]
	bl	__ZNKSt3__18ios_base6getlocEv
	ldr	x0, [sp, #8]                    ; 8-byte Folded Reload
	ldur	x1, [x29, #-24]
Ltmp443:
	add	x8, sp, #40
	bl	__ZNSt3__18ios_base5imbueERKNS_6localeE
Ltmp444:
	b	LBB82_1
LBB82_1:
	add	x0, sp, #40
	bl	__ZNSt3__16localeD1Ev
	ldr	x0, [sp, #8]                    ; 8-byte Folded Reload
	bl	__ZNKSt3__19basic_iosIwNS_11char_traitsIwEEE5rdbufB6v15006Ev
	subs	x8, x0, #0
	cset	w8, eq
	tbnz	w8, #0, LBB82_5
	b	LBB82_2
LBB82_2:
	ldr	x0, [sp, #8]                    ; 8-byte Folded Reload
	bl	__ZNKSt3__19basic_iosIwNS_11char_traitsIwEEE5rdbufB6v15006Ev
	ldur	x1, [x29, #-24]
Ltmp445:
	add	x8, sp, #16
	bl	__ZNSt3__115basic_streambufIwNS_11char_traitsIwEEE8pubimbueB6v15006ERKNS_6localeE
Ltmp446:
	b	LBB82_3
LBB82_3:
	add	x0, sp, #16
	bl	__ZNSt3__16localeD1Ev
	b	LBB82_5
LBB82_4:
Ltmp447:
	mov	x9, x0
	ldr	x0, [sp]                        ; 8-byte Folded Reload
	mov	x8, x1
	str	x9, [sp, #32]
	str	w8, [sp, #28]
	bl	__ZNSt3__16localeD1Ev
	b	LBB82_8
LBB82_5:
	mov	w8, #1
	and	w8, w8, #0x1
	and	w8, w8, #0x1
	sturb	w8, [x29, #-25]
	ldurb	w8, [x29, #-25]
	tbnz	w8, #0, LBB82_7
	b	LBB82_6
LBB82_6:
